文件：APP.c        编译器版本 HGASM 0202 页次1


   1  0000              ; Generated by holtek-gcc v3.19, Wed May 06 10:21:19 2020
   2  0000              ; 
   3  0000              ; Configuration:
   4  0000              ;       with long instruction
   5  0000              ;       Single ROM, Multi-RAM
   6  0000              ;       bits_per_rom_unit:16
   7  0000              ;       with mp1
   8  0000              ;       with tbhp, address(0x9)
   9  0000              ;          Use tabrd-const
  10  0000              ;       
  11  0000              ; SFR address of long-instruction arch:
  12  0000              ;    mp0 = -1,1,0
  13  0000              ;    mp1 = 4,3,2
  14  0000              ;    mp2 = 14,13,12
  15  0000              ;    tbp = 9,7,8
  16  0000              ;    acc = 5
  17  0000              ;    pcl = 6
  18  0000              ;    status = 10
  19  0000              ;    bp = 11
  20  0000              ;    intc = 16
  21  0000              ;       
  22  0000              ;       
  23  0000              ; use 'tabrdc' instead of 'tabrd'
  24  0000              ;       
  25  0000              
  26  0000              #pragma translator "holtek-gcc 4.6.4" "3.19" "build 20130711"
  27  0000              ; Rebuild 718
  28  0000              
  29  0000              ir equ [2]
  30  0000              mp equ [3]
  31  0000              sbp equ [4]
  32  0000              acc equ [5]
  33  0000              bp equ [11]
  34  0000              tblp equ [7]
  35  0000              tbhp equ [9]
  36  0000              status equ [10]
  37  0000              c equ [10].0
  38  0000              ac equ [10].1
  39  0000              z equ [10].2
  40  0000              ov equ [10].3
  41  0000              cz equ [10].6
  42  0000              sc equ [10].7
  43  0000              intc equ [16]
  44  0000              
  45  0000              extern ra:byte
  46  0000              extern rb:byte
  47  0000              extern rc:byte
  48  0000              extern rd:byte
  49  0000              extern re:byte
  50  0000              extern rf:byte
  51  0000              extern rg:byte
  52  0000              extern rh:byte
  53  0000              extern _Crom2Prom:near
  54  0000              extern _Crom2PromNext:near
  55  0000              
  56  0000              RAMBANK 0 @BITDATASEC, @BITDATASEC1
  57  0000              @HCCINIT	.section 'data'
  58  0000              @HCCINIT0	.section 'data'
  59  0000              @BITDATASEC	 .section 'data'
文件：APP.ASM      编译器版本 HGASM 0202 页次2

  60  0000              @BITDATASEC1	 .section 'data'
  61  0000              
  62  0000              #pragma debug scope 1 1
  63  0000              	extern __DELAY3:near
  64  0000              	extern __DELAYX3:near
  65  0000              	extern __DELAYX6:near
  66  0000              	extern __DELAYY5:near
  67  0000              	extern __DELAYY3:near
  68  0000              	extern _builtin_holtek_delay_2:byte
  69  0000              ___adcr0 equ [48]
  70  0000              ___adrh equ [47]
  71  0000              ___adrl equ [46]
  72  0000              public _ADC_GetValue
  73  0000              #pragma debug scope 2 1

 114  0000              #line 114 "D:\FJ-Holtek_Project\VSCode\BS66FV350_20200424-C280\USER_PROGRAM\APP.c"
 114  0000              _ADC_GetValue .section 'code'
 114  0000              _ADC_GetValue proc
 118  0000              #line 118 "D:\FJ-Holtek_Project\VSCode\BS66FV350_20200424-C280\USER_PROGRAM\APP.c"
 118  0000  37B0        	clr [48].7
 118  0001  33B0        	set [48].7
 118  0002  37B0        	clr [48].7
 118  0003              _L3:
 121  0003              #line 121 "D:\FJ-Holtek_Project\VSCode\BS66FV350_20200424-C280\USER_PROGRAM\APP.c"
 121  0003  3F30        	sz [48].6
 121  0004  2800     R  	jmp _L3
 125  0005              #line 125 "D:\FJ-Holtek_Project\VSCode\BS66FV350_20200424-C280\USER_PROGRAM\APP.c"
 125  0005  072F        	mov a,[47]
 125  0006  0080     E  	mov rc,a
 125  0007  1F00     E  	clr rb
 128  0008              #line 128 "D:\FJ-Holtek_Project\VSCode\BS66FV350_20200424-C280\USER_PROGRAM\APP.c"
 128  0008  0700     E  	mov a,rc
 128  0009  0080     E  	mov re,a
 128  000A  072E        	mov a,[46]
 128  000B  0500     E  	or a,rb
 128  000C  0080     E  	mov rd,a
 128  000D  0700     E  	mov a,rd
 128  000E  0080     E  	mov ra,a
 128  000F  0700     E  	mov a,re
 128  0010  0080     E  	mov rb,a
 128  0011  0003        	ret
 128  0012              _ADC_GetValue endp
 128  0012              #line 128 "D:\FJ-Holtek_Project\VSCode\BS66FV350_20200424-C280\USER_PROGRAM\APP.c"
 128  0012              #pragma debug scope 1 1
 128  0012              public _NTC_GetAdcValue
 128  0012              #pragma debug scope 3 1
 140  0012              #line 140 "D:\FJ-Holtek_Project\VSCode\BS66FV350_20200424-C280\USER_PROGRAM\APP.c"
 140  0000              _NTC_GetAdcValue .section 'code'
 140  0000              _NTC_GetAdcValue proc
 143  0000              #line 143 "D:\FJ-Holtek_Project\VSCode\BS66FV350_20200424-C280\USER_PROGRAM\APP.c"
 143  0000  2000     R  	call _ADC_GetValue
 143  0001  0700     E  	mov a,ra
 143  0002  0080     R  	mov _adcConverterValue[0],a
 143  0003  0700     E  	mov a,rb
 143  0004  0080     R  	mov _adcConverterValue[1],a
 145  0005              #line 145 "D:\FJ-Holtek_Project\VSCode\BS66FV350_20200424-C280\USER_PROGRAM\APP.c"
 145  0005  0FC8        	mov a,200
 145  0006  0200     R  	sub a,_adcConverterValue[0]
 145  0007  0F00        	mov a,0
 145  0008  1200     R  	sbc a,_adcConverterValue[1]
文件：APP.c        编译器版本 HGASM 0202 页次3

 145  0009  3C0A        	sz c
 145  000A  2800     R  	jmp _L6
 146  000B              #line 146 "D:\FJ-Holtek_Project\VSCode\BS66FV350_20200424-C280\USER_PROGRAM\APP.c"
 146  000B  0F38        	mov a,56
 146  000C  0300     R  	add a,_adcConverterValueOld[0]
 146  000D  0080     E  	mov rb,a
 146  000E  0FFF        	mov a,255
 146  000F  1300     R  	adc a,_adcConverterValueOld[1]
 146  0010  0080     E  	mov rc,a
 146  0011  0700     R  	mov a,_adcConverterValue[0]
 146  0012  0200     E  	sub a,rb
 146  0013  0700     R  	mov a,_adcConverterValue[1]
 146  0014  1200     E  	sbc a,rc
 146  0015  380A        	snz c
 146  0016  2800     R  	jmp _L7
 147  0017              #line 147 "D:\FJ-Holtek_Project\VSCode\BS66FV350_20200424-C280\USER_PROGRAM\APP.c"
 147  0017  0FC8        	mov a,200
 147  0018  0300     R  	add a,_adcConverterValueOld[0]
 147  0019  0080     E  	mov rb,a
 147  001A  0F00        	mov a,0
 147  001B  1300     R  	adc a,_adcConverterValueOld[1]
 147  001C  0080     E  	mov rc,a
 146  001D              #line 146 "D:\FJ-Holtek_Project\VSCode\BS66FV350_20200424-C280\USER_PROGRAM\APP.c"
 146  001D  0700     E  	mov a,rb
 146  001E  0200     R  	sub a,_adcConverterValue[0]
 146  001F  0700     E  	mov a,rc
 146  0020  1200     R  	sbc a,_adcConverterValue[1]
 146  0021  3C0A        	sz c
 146  0022  2800     R  	jmp _L6
 146  0023              _L7:
 148  0023              #line 148 "D:\FJ-Holtek_Project\VSCode\BS66FV350_20200424-C280\USER_PROGRAM\APP.c"
 148  0023  1400     R  	inca _adcValueErrorCnt[0]
 148  0024  0080     E  	mov ra,a
 148  0025  0700     E  	mov a,ra
 148  0026  0080     R  	mov _adcValueErrorCnt[0],a
 148  0027  0F03        	mov a,3
 148  0028  0200     E  	sub a,ra
 148  0029  3C0A        	sz c
 148  002A  2800     R  	jmp _L9
 149  002B              #line 149 "D:\FJ-Holtek_Project\VSCode\BS66FV350_20200424-C280\USER_PROGRAM\APP.c"
 149  002B  0700     R  	mov a,_adcConverterValue[0]
 149  002C  0080     R  	mov _adcConverterValueOld[0],a
 149  002D  0700     R  	mov a,_adcConverterValue[1]
 149  002E  0080     R  	mov _adcConverterValueOld[1],a
 150  002F              #line 150 "D:\FJ-Holtek_Project\VSCode\BS66FV350_20200424-C280\USER_PROGRAM\APP.c"
 150  002F  1F00     R  	clr _adcValueSum[0]
 150  0030  1F00     R  	clr _adcValueSum[1]
 150  0031  1F00     R  	clr _adcSumCnt[0]
 150  0032  2800     R  	jmp _L11
 150  0033              _L6:
 166  0033              #line 166 "D:\FJ-Holtek_Project\VSCode\BS66FV350_20200424-C280\USER_PROGRAM\APP.c"
 166  0033  0700     R  	mov a,_adcConverterValue[0]
 166  0034  0380     R  	addm a,_adcValueSum[0]
 166  0035  0700     R  	mov a,_adcConverterValue[1]
 166  0036  1380     R  	adcm a,_adcValueSum[1]
 169  0037              #line 169 "D:\FJ-Holtek_Project\VSCode\BS66FV350_20200424-C280\USER_PROGRAM\APP.c"
 169  0037  1480     R  	inc _adcSumCnt[0]
 169  0038              _L11:
 169  0038  1F00     R  	clr _adcValueErrorCnt[0]
 169  0039              _L9:
文件：APP.c        编译器版本 HGASM 0202 页次4

 172  0039              #line 172 "D:\FJ-Holtek_Project\VSCode\BS66FV350_20200424-C280\USER_PROGRAM\APP.c"
 172  0039  0F0E        	mov a,14
 172  003A  0200     R  	sub a,_adcSumCnt[0]
 172  003B  3C0A        	sz c
 172  003C  2800     R  	jmp _L5
 173  003D              #line 173 "D:\FJ-Holtek_Project\VSCode\BS66FV350_20200424-C280\USER_PROGRAM\APP.c"
 173  003D  0700     R  	mov a,_adcSumCnt[0]
 173  003E  0080     E  	mov rb,a
 173  003F  1F00     E  	clr rc
 173  0040  1F00     E  	clr _builtin_holtek_udivmodhi4_2[6]
 173  0041  0700     R  	mov a,_adcValueSum[0]  
 173  0042  0080     E  	mov _builtin_holtek_udivmodhi4_2[0],a  
 173  0043  0700     R  	mov a,_adcValueSum[1]  
 173  0044  0080     E  	mov _builtin_holtek_udivmodhi4_2[1],a
 173  0045  0700     E  	mov a,rb  
 173  0046  0080     E  	mov _builtin_holtek_udivmodhi4_2[2],a  
 173  0047  0700     E  	mov a,rc  
 173  0048  0080     E  	mov _builtin_holtek_udivmodhi4_2[3],a
 173  0049  2000     E  	call _builtin_holtek_udivmodhi4
 173  004A  0700     E  	mov a,_builtin_holtek_udivmodhi4_2[0]  
 173  004B  0080     R  	mov _ntcAdcVaule[0],a  
 173  004C  0700     E  	mov a,_builtin_holtek_udivmodhi4_2[1]  
 173  004D  0080     R  	mov _ntcAdcVaule[1],a
 174  004E              #line 174 "D:\FJ-Holtek_Project\VSCode\BS66FV350_20200424-C280\USER_PROGRAM\APP.c"
 174  004E  1F00     R  	clr _adcValueSum[0]
 174  004F  1F00     R  	clr _adcValueSum[1]
 174  0050  1F00     R  	clr _adcSumCnt[0]
 174  0051              _L5:
 174  0051  0003        	ret
 174  0052              _NTC_GetAdcValue endp
 174  0052              #line 174 "D:\FJ-Holtek_Project\VSCode\BS66FV350_20200424-C280\USER_PROGRAM\APP.c"
 174  0052              #pragma debug scope 1 1
 174  0052              ___pb equ [24]
 174  0052              public _NTC_HeatControl
 174  0052              #pragma debug scope 4 1
 185  0052              #line 185 "D:\FJ-Holtek_Project\VSCode\BS66FV350_20200424-C280\USER_PROGRAM\APP.c"
 185  0000              _NTC_HeatControl .section 'code'
 185  0000              _NTC_HeatControl proc
 185  0000  0004[           local _NTC_HeatControl_2 db 4 dup(?)	; 0,4
            00
            ]
 195  0004              #line 195 "D:\FJ-Holtek_Project\VSCode\BS66FV350_20200424-C280\USER_PROGRAM\APP.c"
 195  0000  0F0E        	mov a,14
 195  0001  0200     R  	sub a,_ntcAdcVaule[0]
 195  0002  0F00        	mov a,0
 195  0003  1200     R  	sbc a,_ntcAdcVaule[1]
 195  0004  380A        	snz c
 195  0005  2800     R  	jmp _L13
 196  0006              #line 196 "D:\FJ-Holtek_Project\VSCode\BS66FV350_20200424-C280\USER_PROGRAM\APP.c"
 196  0006  0700     R  	mov a,_sysWork[4]
 196  0007  0080     R  	mov _sysWork[5],a
 197  0008              #line 197 "D:\FJ-Holtek_Project\VSCode\BS66FV350_20200424-C280\USER_PROGRAM\APP.c"
 197  0008  0F80        	mov a,128
 197  0009  0080     R  	mov _sysWork[4],a
 198  000A              #line 198 "D:\FJ-Holtek_Project\VSCode\BS66FV350_20200424-C280\USER_PROGRAM\APP.c"
 198  000A  0F03        	mov a,3
 198  000B  0080     R  	mov _nixTubeDisType[0],a
 199  000C              #line 199 "D:\FJ-Holtek_Project\VSCode\BS66FV350_20200424-C280\USER_PROGRAM\APP.c"
 199  000C  0F03        	mov a,3
 199  000D  0080     E  	mov ra,a
文件：APP.c        编译器版本 HGASM 0202 页次5

 199  000E  2800     R  	jmp _L14
 199  000F              _L13:
 200  000F              #line 200 "D:\FJ-Holtek_Project\VSCode\BS66FV350_20200424-C280\USER_PROGRAM\APP.c"
 200  000F  0FF1        	mov a,241
 200  0010  0200     R  	sub a,_ntcAdcVaule[0]
 200  0011  0F0F        	mov a,15
 200  0012  1200     R  	sbc a,_ntcAdcVaule[1]
 200  0013  3C0A        	sz c
 200  0014  2800     R  	jmp _L15
 201  0015              #line 201 "D:\FJ-Holtek_Project\VSCode\BS66FV350_20200424-C280\USER_PROGRAM\APP.c"
 201  0015  0700     R  	mov a,_sysWork[4]
 201  0016  0080     R  	mov _sysWork[5],a
 202  0017              #line 202 "D:\FJ-Holtek_Project\VSCode\BS66FV350_20200424-C280\USER_PROGRAM\APP.c"
 202  0017  0F80        	mov a,128
 202  0018  0080     R  	mov _sysWork[4],a
 203  0019              #line 203 "D:\FJ-Holtek_Project\VSCode\BS66FV350_20200424-C280\USER_PROGRAM\APP.c"
 203  0019  0F02        	mov a,2
 203  001A  0080     R  	mov _nixTubeDisType[0],a
 204  001B              #line 204 "D:\FJ-Holtek_Project\VSCode\BS66FV350_20200424-C280\USER_PROGRAM\APP.c"
 204  001B  0F04        	mov a,4
 204  001C  0080     E  	mov ra,a
 204  001D  2800     R  	jmp _L14
 204  001E              _L15:
 206  001E              #line 206 "D:\FJ-Holtek_Project\VSCode\BS66FV350_20200424-C280\USER_PROGRAM\APP.c"
 206  001E  0700     R  	mov a,_sysWork[4]
 206  001F  0A80        	sub a,128
 206  0020  390A        	snz z
 206  0021  2800     R  	jmp _L16
 207  0022              #line 207 "D:\FJ-Holtek_Project\VSCode\BS66FV350_20200424-C280\USER_PROGRAM\APP.c"
 207  0022  1F00     R  	clr _sysWork[4]
 207  0023              _L16:
 211  0023              #line 211 "D:\FJ-Holtek_Project\VSCode\BS66FV350_20200424-C280\USER_PROGRAM\APP.c"
 211  0023  0F01        	mov a,1
 211  0024  0200     R  	sub a,_sysWork[4]
 211  0025  380A        	snz c
 211  0026  2800     R  	jmp _L17
 212  0027              #line 212 "D:\FJ-Holtek_Project\VSCode\BS66FV350_20200424-C280\USER_PROGRAM\APP.c"
 212  0027  1F00     R  	clr ___heatState_2576[0]
 213  0028              #line 213 "D:\FJ-Holtek_Project\VSCode\BS66FV350_20200424-C280\USER_PROGRAM\APP.c"
 213  0028  1F00     E  	clr ra
 213  0029  2800     R  	jmp _L14
 213  002A              _L17:
 266  002A              #line 266 "D:\FJ-Holtek_Project\VSCode\BS66FV350_20200424-C280\USER_PROGRAM\APP.c"
 266  002A  1E00     R  	snz _tksFun[1]
 266  002B  2800     R  	jmp _L24
 269  002C              #line 269 "D:\FJ-Holtek_Project\VSCode\BS66FV350_20200424-C280\USER_PROGRAM\APP.c"
 269  002C  0FFF        	mov a,255
 269  002D  0300     R  	add a,_tksFun[1]
 269  002E  0080     E  	mov rb,a
 269  002F  0FFF        	mov a,255
 269  0030  1F00     E  	clr rc
 269  0031  1380     E  	adcm a,rc
 269  0032  340A        	clr c
 269  0033  1A80     E  	rlc rb
 269  0034  1A80     E  	rlc rc
 269  0035  0F00     R  	mov a,low offset _ntcTempArr
 269  0036  0300     E  	add a,rb
 269  0037  0083        	mov mp,a
 269  0038  0F00     R  	mov a,high offset _ntcTempArr
 269  0039  1300     E  	adc a,rc
文件：APP.c        编译器版本 HGASM 0202 页次6

 269  003A  0084        	mov sbp,a
 269  003B  2000     E  	call _Crom2Prom
 269  003C  0080     E  	mov rd,a
 269  003D  2000     E  	call _Crom2PromNext
 269  003E  0080     E  	mov re,a
 269  003F  0700     E  	mov a,rd
 269  0040  0080     E  	mov rd,a
 269  0041  0700     E  	mov a,re
 269  0042  0080     E  	mov re,a
 269  0043  1F00     E  	clr rf
 269  0044  1F00     E  	clr rg
 269  0045  0F0C        	mov a,12
 269  0046              _LI1:
 269  0046  340A        	clr c
 269  0047  1A80     E  	rlc rd
 269  0048  1A80     E  	rlc re
 269  0049  1A80     E  	rlc rf
 269  004A  1A80     E  	rlc rg
 269  004B  1785        	sdz acc
 269  004C  2800     R  	jmp _LI1
 269  004D  0FFF        	mov a,255
 269  004E  0300     R  	add a,_tksFun[1]
 269  004F  0080     E  	mov rb,a
 269  0050  0FFF        	mov a,255
 269  0051  1F00     E  	clr rc
 269  0052  1380     E  	adcm a,rc
 269  0053  340A        	clr c
 269  0054  1A80     E  	rlc rb
 269  0055  1A80     E  	rlc rc
 269  0056  0F00     R  	mov a,low offset _ntcTempArr
 269  0057  0300     E  	add a,rb
 269  0058  0083        	mov mp,a
 269  0059  0F00     R  	mov a,high offset _ntcTempArr
 269  005A  1300     E  	adc a,rc
 269  005B  0084        	mov sbp,a
 269  005C  2000     E  	call _Crom2Prom
 269  005D  0080     E  	mov rb,a
 269  005E  2000     E  	call _Crom2PromNext
 269  005F  0080     E  	mov rc,a
 269  0060  0700     E  	mov a,rb
 269  0061  0080     R  	mov _NTC_HeatControl_2[0],a
 269  0062  0700     E  	mov a,rc
 269  0063  0080     R  	mov _NTC_HeatControl_2[1],a
 269  0064  1F00     R  	clr _NTC_HeatControl_2[2]
 269  0065  1F00     R  	clr _NTC_HeatControl_2[3]
 269  0066  0F68        	mov a,104
 269  0067  0380     R  	addm a,_NTC_HeatControl_2[0]
 269  0068  0F08        	mov a,8
 269  0069  1380     R  	adcm a,_NTC_HeatControl_2[1]
 269  006A  0F00        	mov a,0
 269  006B  1380     R  	adcm a,_NTC_HeatControl_2[2]
 269  006C  1380     R  	adcm a,_NTC_HeatControl_2[3]
 269  006D  0700     E  	mov a,rd  
 269  006E  0080     E  	mov _builtin_holtek_udivmodsi4_2[0],a  
 269  006F  0700     E  	mov a,re  
 269  0070  0080     E  	mov _builtin_holtek_udivmodsi4_2[1],a
 269  0071  0700     E  	mov a,rf  
 269  0072  0080     E  	mov _builtin_holtek_udivmodsi4_2[2],a  
 269  0073  0700     E  	mov a,rg  
 269  0074  0080     E  	mov _builtin_holtek_udivmodsi4_2[3],a
文件：APP.c        编译器版本 HGASM 0202 页次7

 269  0075  0700     R  	mov a,_NTC_HeatControl_2[0]  
 269  0076  0080     E  	mov _builtin_holtek_udivmodsi4_2[4],a  
 269  0077  0700     R  	mov a,_NTC_HeatControl_2[1]  
 269  0078  0080     E  	mov _builtin_holtek_udivmodsi4_2[5],a
 269  0079  0700     R  	mov a,_NTC_HeatControl_2[2]  
 269  007A  0080     E  	mov _builtin_holtek_udivmodsi4_2[6],a  
 269  007B  0700     R  	mov a,_NTC_HeatControl_2[3]  
 269  007C  0080     E  	mov _builtin_holtek_udivmodsi4_2[7],a
 269  007D  2000     E  	call _builtin_holtek_divmodsi4
 269  007E  0700     E  	mov a,_builtin_holtek_udivmodsi4_2[0]  
 269  007F  0080     E  	mov rd,a  
 269  0080  0700     E  	mov a,_builtin_holtek_udivmodsi4_2[1]  
 269  0081  0080     E  	mov re,a
 269  0082  0700     E  	mov a,_builtin_holtek_udivmodsi4_2[2]  
 269  0083  0080     E  	mov rf,a  
 269  0084  0700     E  	mov a,_builtin_holtek_udivmodsi4_2[3]  
 269  0085  0080     E  	mov rg,a
 269  0086  2800     R  	jmp _L18
 269  0087              _L24:
 267  0087              #line 267 "D:\FJ-Holtek_Project\VSCode\BS66FV350_20200424-C280\USER_PROGRAM\APP.c"
 267  0087  0F47        	mov a,71
 267  0088  0080     E  	mov rd,a
 267  0089  0F0D        	mov a,13
 267  008A  0080     E  	mov re,a
 267  008B              _L18:
 272  008B              #line 272 "D:\FJ-Holtek_Project\VSCode\BS66FV350_20200424-C280\USER_PROGRAM\APP.c"
 272  008B  0700     R  	mov a,_ntcAdcVaule[0]
 272  008C  0200     E  	sub a,rd
 272  008D  0700     R  	mov a,_ntcAdcVaule[1]
 272  008E  1200     E  	sbc a,re
 272  008F  3C0A        	sz c
 272  0090  2800     R  	jmp _L19
 274  0091              #line 274 "D:\FJ-Holtek_Project\VSCode\BS66FV350_20200424-C280\USER_PROGRAM\APP.c"
 274  0091  0F14        	mov a,20
 274  0092  0300     R  	add a,___preheatStopTime_2579[0]
 274  0093  0080     E  	mov rb,a
 274  0094  0F00        	mov a,0
 274  0095  1300     R  	adc a,___preheatStopTime_2579[1]
 274  0096  0080     E  	mov rc,a
 274  0097  0700     E  	mov a,rb
 274  0098  0200     R  	sub a,_sysWork[0]
 274  0099  0700     E  	mov a,rc
 274  009A  1200     R  	sbc a,_sysWork[1]
 274  009B  380A        	snz c
 274  009C  2800     R  	jmp _L22
 275  009D              #line 275 "D:\FJ-Holtek_Project\VSCode\BS66FV350_20200424-C280\USER_PROGRAM\APP.c"
 275  009D  0700     R  	mov a,_tksFun[1]
 275  009E  0080     E  	mov rb,a
 275  009F  1F00     E  	clr rc
 275  00A0  340A        	clr c
 275  00A1  1A80     E  	rlc rb
 275  00A2  1A80     E  	rlc rc
 275  00A3  0F00     R  	mov a,low offset _ntcTempArr
 275  00A4  0300     E  	add a,rb
 275  00A5  0083        	mov mp,a
 275  00A6  0F00     R  	mov a,high offset _ntcTempArr
 275  00A7  1300     E  	adc a,rc
 275  00A8  0084        	mov sbp,a
 275  00A9  2000     E  	call _Crom2Prom
 275  00AA  0080     E  	mov rd,a
文件：APP.c        编译器版本 HGASM 0202 页次8

 275  00AB  2000     E  	call _Crom2PromNext
 275  00AC  0080     E  	mov re,a
 275  00AD  0700     E  	mov a,rd
 275  00AE  0080     E  	mov rd,a
 275  00AF  0700     E  	mov a,re
 275  00B0  0080     E  	mov re,a
 275  00B1  1F00     E  	clr rf
 275  00B2  1F00     E  	clr rg
 275  00B3  0F0C        	mov a,12
 275  00B4              _LI2:
 275  00B4  340A        	clr c
 275  00B5  1A80     E  	rlc rd
 275  00B6  1A80     E  	rlc re
 275  00B7  1A80     E  	rlc rf
 275  00B8  1A80     E  	rlc rg
 275  00B9  1785        	sdz acc
 275  00BA  2800     R  	jmp _LI2
 275  00BB  0700     R  	mov a,_tksFun[1]
 275  00BC  0080     E  	mov rb,a
 275  00BD  1F00     E  	clr rc
 275  00BE  340A        	clr c
 275  00BF  1A80     E  	rlc rb
 275  00C0  1A80     E  	rlc rc
 275  00C1  0F00     R  	mov a,low offset _ntcTempArr
 275  00C2  0300     E  	add a,rb
 275  00C3  0083        	mov mp,a
 275  00C4  0F00     R  	mov a,high offset _ntcTempArr
 275  00C5  1300     E  	adc a,rc
 275  00C6  0084        	mov sbp,a
 275  00C7  2000     E  	call _Crom2Prom
 275  00C8  0080     E  	mov rb,a
 275  00C9  2000     E  	call _Crom2PromNext
 275  00CA  0080     E  	mov rc,a
 275  00CB  0700     E  	mov a,rb
 275  00CC  0080     R  	mov _NTC_HeatControl_2[0],a
 275  00CD  0700     E  	mov a,rc
 275  00CE  0080     R  	mov _NTC_HeatControl_2[1],a
 275  00CF  1F00     R  	clr _NTC_HeatControl_2[2]
 275  00D0  1F00     R  	clr _NTC_HeatControl_2[3]
 275  00D1  0F68        	mov a,104
 275  00D2  0380     R  	addm a,_NTC_HeatControl_2[0]
 275  00D3  0F08        	mov a,8
 275  00D4  1380     R  	adcm a,_NTC_HeatControl_2[1]
 275  00D5  0F00        	mov a,0
 275  00D6  1380     R  	adcm a,_NTC_HeatControl_2[2]
 275  00D7  1380     R  	adcm a,_NTC_HeatControl_2[3]
 275  00D8  0700     E  	mov a,rd  
 275  00D9  0080     E  	mov _builtin_holtek_udivmodsi4_2[0],a  
 275  00DA  0700     E  	mov a,re  
 275  00DB  0080     E  	mov _builtin_holtek_udivmodsi4_2[1],a
 275  00DC  0700     E  	mov a,rf  
 275  00DD  0080     E  	mov _builtin_holtek_udivmodsi4_2[2],a  
 275  00DE  0700     E  	mov a,rg  
 275  00DF  0080     E  	mov _builtin_holtek_udivmodsi4_2[3],a
 275  00E0  0700     R  	mov a,_NTC_HeatControl_2[0]  
 275  00E1  0080     E  	mov _builtin_holtek_udivmodsi4_2[4],a  
 275  00E2  0700     R  	mov a,_NTC_HeatControl_2[1]  
 275  00E3  0080     E  	mov _builtin_holtek_udivmodsi4_2[5],a
 275  00E4  0700     R  	mov a,_NTC_HeatControl_2[2]  
 275  00E5  0080     E  	mov _builtin_holtek_udivmodsi4_2[6],a  
文件：APP.c        编译器版本 HGASM 0202 页次9

 275  00E6  0700     R  	mov a,_NTC_HeatControl_2[3]  
 275  00E7  0080     E  	mov _builtin_holtek_udivmodsi4_2[7],a
 275  00E8  2000     E  	call _builtin_holtek_divmodsi4
 275  00E9  0700     E  	mov a,_builtin_holtek_udivmodsi4_2[0]  
 275  00EA  0080     E  	mov rd,a  
 275  00EB  0700     E  	mov a,_builtin_holtek_udivmodsi4_2[1]  
 275  00EC  0080     E  	mov re,a
 275  00ED  0700     E  	mov a,_builtin_holtek_udivmodsi4_2[2]  
 275  00EE  0080     E  	mov rf,a  
 275  00EF  0700     E  	mov a,_builtin_holtek_udivmodsi4_2[3]  
 275  00F0  0080     E  	mov rg,a
 276  00F1              #line 276 "D:\FJ-Holtek_Project\VSCode\BS66FV350_20200424-C280\USER_PROGRAM\APP.c"
 276  00F1  0FF6        	mov a,246
 276  00F2  0380     E  	addm a,rd
 276  00F3  0FFF        	mov a,255
 276  00F4  1380     E  	adcm a,re
 276  00F5  0700     R  	mov a,_ntcAdcVaule[0]
 276  00F6  0200     E  	sub a,rd
 276  00F7  0700     R  	mov a,_ntcAdcVaule[1]
 276  00F8  1200     E  	sbc a,re
 276  00F9  3C0A        	sz c
 276  00FA  2800     R  	jmp _L25
 277  00FB              #line 277 "D:\FJ-Holtek_Project\VSCode\BS66FV350_20200424-C280\USER_PROGRAM\APP.c"
 277  00FB  3218        	set [24].4
 278  00FC              #line 278 "D:\FJ-Holtek_Project\VSCode\BS66FV350_20200424-C280\USER_PROGRAM\APP.c"
 278  00FC  1080     R  	sz ___heatState_2576[0]
 278  00FD  2800     R  	jmp _L22
 279  00FE              #line 279 "D:\FJ-Holtek_Project\VSCode\BS66FV350_20200424-C280\USER_PROGRAM\APP.c"
 279  00FE  0F01        	mov a,1
 279  00FF  0080     R  	mov ___heatState_2576[0],a
 280  0100              #line 280 "D:\FJ-Holtek_Project\VSCode\BS66FV350_20200424-C280\USER_PROGRAM\APP.c"
 280  0100  0F03        	mov a,3
 280  0101  0080     R  	mov _buzzType[0],a
 281  0102              #line 281 "D:\FJ-Holtek_Project\VSCode\BS66FV350_20200424-C280\USER_PROGRAM\APP.c"
 281  0102  0700     R  	mov a,_sysWork[0]
 281  0103  0500     R  	or a,_sysWork[1]
 281  0104  3D0A        	sz z
 281  0105  2800     R  	jmp _L23
 282  0106              #line 282 "D:\FJ-Holtek_Project\VSCode\BS66FV350_20200424-C280\USER_PROGRAM\APP.c"
 282  0106  0F03        	mov a,3
 282  0107  0080     R  	mov _interDistime[0],a
 282  0108  2800     R  	jmp _L22
 282  0109              _L23:
 284  0109              #line 284 "D:\FJ-Holtek_Project\VSCode\BS66FV350_20200424-C280\USER_PROGRAM\APP.c"
 284  0109  0F14        	mov a,20
 284  010A  0080     R  	mov _stopDownCount[0],a
 284  010B  0F0A        	mov a,10
 284  010C  0080     R  	mov _stopDownCount[1],a
 284  010D  2800     R  	jmp _L22
 284  010E              _L19:
 293  010E              #line 293 "D:\FJ-Holtek_Project\VSCode\BS66FV350_20200424-C280\USER_PROGRAM\APP.c"
 293  010E  0700     R  	mov a,_sysWork[0]
 293  010F  0080     R  	mov ___preheatStopTime_2579[0],a
 293  0110  0700     R  	mov a,_sysWork[1]
 293  0111  0080     R  	mov ___preheatStopTime_2579[1],a
 293  0112              _L25:
 294  0112              #line 294 "D:\FJ-Holtek_Project\VSCode\BS66FV350_20200424-C280\USER_PROGRAM\APP.c"
 294  0112  3618        	clr [24].4
 294  0113              _L22:
 297  0113              #line 297 "D:\FJ-Holtek_Project\VSCode\BS66FV350_20200424-C280\USER_PROGRAM\APP.c"
文件：APP.c        编译器版本 HGASM 0202 页次10

 297  0113  0700     R  	mov a,___heatState_2576[0]
 297  0114  0080     E  	mov ra,a
 297  0115              _L14:
 298  0115              #line 298 "D:\FJ-Holtek_Project\VSCode\BS66FV350_20200424-C280\USER_PROGRAM\APP.c"
 298  0115  0700     E  	mov a,ra
 298  0116  0003        	ret
 298  0117              _NTC_HeatControl endp
 298  0117              #line 298 "D:\FJ-Holtek_Project\VSCode\BS66FV350_20200424-C280\USER_PROGRAM\APP.c"
 298  0117              #pragma debug scope 1 1
 298  0117              ___ptmal equ [76]
 298  0117              ___ptmah equ [77]
 298  0117              ___ptmrpl equ [78]
 298  0117              ___ptmrph equ [79]
 298  0117              public _BUZZ_Control
 298  0117              #pragma debug scope 5 1
 315  0117              #line 315 "D:\FJ-Holtek_Project\VSCode\BS66FV350_20200424-C280\USER_PROGRAM\APP.c"
 315  0000              _BUZZ_Control .section 'code'
 315  0000              _BUZZ_Control proc
 315  0000              public _BUZZ_Control_2
 315  0000  0002[           local _BUZZ_Control_2 db 2 dup(?)	; 2,0
            00
            ]
 315  0002              #pragma debug variable 10 5 _BUZZ_Control_2+0 "period"
 317  0002              #line 317 "D:\FJ-Holtek_Project\VSCode\BS66FV350_20200424-C280\USER_PROGRAM\APP.c"
 317  0000  0700     R  	mov a,_BUZZ_Control_2[0]
 317  0001  0500     R  	or a,_BUZZ_Control_2[1]
 317  0002  390A        	snz z
 317  0003  2800     R  	jmp _L27
 318  0004              #line 318 "D:\FJ-Holtek_Project\VSCode\BS66FV350_20200424-C280\USER_PROGRAM\APP.c"
 318  0004  1F4C        	clr [76]
 319  0005              #line 319 "D:\FJ-Holtek_Project\VSCode\BS66FV350_20200424-C280\USER_PROGRAM\APP.c"
 319  0005  1F4D        	clr [77]
 320  0006              #line 320 "D:\FJ-Holtek_Project\VSCode\BS66FV350_20200424-C280\USER_PROGRAM\APP.c"
 320  0006  1F00     R  	clr _periodOld[0]
 320  0007  1F00     R  	clr _periodOld[1]
 320  0008              _L27:
 323  0008              #line 323 "D:\FJ-Holtek_Project\VSCode\BS66FV350_20200424-C280\USER_PROGRAM\APP.c"
 323  0008  0700     R  	mov a,_periodOld[0]
 323  0009  0200     R  	sub a,_BUZZ_Control_2[0]
 323  000A  0700     R  	mov a,_periodOld[1]
 323  000B  1200     R  	sbc a,_BUZZ_Control_2[1]
 323  000C  3F0A        	sz cz
 323  000D  2800     R  	jmp _L26
 323  000E              #pragma debug scope 6 5
 323  000E              ;begin block, line: 323.-1
 324  000E              #line 324 "D:\FJ-Holtek_Project\VSCode\BS66FV350_20200424-C280\USER_PROGRAM\APP.c"
 324  000E  0700     R  	mov a,_BUZZ_Control_2[0]
 324  000F  0080     R  	mov _periodOld[0],a
 324  0010  0700     R  	mov a,_BUZZ_Control_2[1]
 324  0011  0080     R  	mov _periodOld[1],a
 326  0012              #line 326 "D:\FJ-Holtek_Project\VSCode\BS66FV350_20200424-C280\USER_PROGRAM\APP.c"
 326  0012  0700     R  	mov a,_BUZZ_Control_2[0]
 326  0013  0080     E  	mov re,a
 326  0014  0700     R  	mov a,_BUZZ_Control_2[1]
 326  0015  0080     E  	mov rf,a
 326  0016  1F00     E  	clr rg
 326  0017  1F00     E  	clr rh
 326  0018  0F48        	mov a,72
 326  0019  0080     E  	mov ra,a
 326  001A  0FE8        	mov a,-24
文件：APP.c        编译器版本 HGASM 0202 页次11

 326  001B  0080     E  	mov rb,a
 326  001C  0F01        	mov a,1
 326  001D  0080     E  	mov rc,a
 326  001E  1F00     E  	clr rd
 326  001F  0700     E  	mov a,ra  
 326  0020  0080     E  	mov _builtin_holtek_udivmodsi4_2[0],a  
 326  0021  0700     E  	mov a,rb  
 326  0022  0080     E  	mov _builtin_holtek_udivmodsi4_2[1],a
 326  0023  0700     E  	mov a,rc  
 326  0024  0080     E  	mov _builtin_holtek_udivmodsi4_2[2],a  
 326  0025  0700     E  	mov a,rd  
 326  0026  0080     E  	mov _builtin_holtek_udivmodsi4_2[3],a
 326  0027  0700     E  	mov a,re  
 326  0028  0080     E  	mov _builtin_holtek_udivmodsi4_2[4],a  
 326  0029  0700     E  	mov a,rf  
 326  002A  0080     E  	mov _builtin_holtek_udivmodsi4_2[5],a
 326  002B  0700     E  	mov a,rg  
 326  002C  0080     E  	mov _builtin_holtek_udivmodsi4_2[6],a  
 326  002D  0700     E  	mov a,rh  
 326  002E  0080     E  	mov _builtin_holtek_udivmodsi4_2[7],a
 326  002F  2000     E  	call _builtin_holtek_divmodsi4
 326  0030  0700     E  	mov a,_builtin_holtek_udivmodsi4_2[0]  
 326  0031  0080     E  	mov re,a  
 326  0032  0700     E  	mov a,_builtin_holtek_udivmodsi4_2[1]  
 326  0033  0080     E  	mov rf,a
 326  0034  0700     E  	mov a,_builtin_holtek_udivmodsi4_2[2]  
 326  0035  0080     E  	mov rg,a  
 326  0036  0700     E  	mov a,_builtin_holtek_udivmodsi4_2[3]  
 326  0037  0080     E  	mov rh,a
 327  0038              #line 327 "D:\FJ-Holtek_Project\VSCode\BS66FV350_20200424-C280\USER_PROGRAM\APP.c"
 327  0038  0700     E  	mov a,re
 327  0039  0080     E  	mov rb,a
 327  003A  0700     E  	mov a,rf
 327  003B  0080     E  	mov rc,a
 327  003C  340A        	clr c
 327  003D  1B80     E  	rrc rc
 327  003E  1B80     E  	rrc rb
 329  003F              #line 329 "D:\FJ-Holtek_Project\VSCode\BS66FV350_20200424-C280\USER_PROGRAM\APP.c"
 329  003F  0700     E  	mov a,re
 329  0040  00CE        	mov [78],a
 330  0041              #line 330 "D:\FJ-Holtek_Project\VSCode\BS66FV350_20200424-C280\USER_PROGRAM\APP.c"
 330  0041  0700     E  	mov a,rf
 330  0042  00CF        	mov [79],a
 331  0043              #line 331 "D:\FJ-Holtek_Project\VSCode\BS66FV350_20200424-C280\USER_PROGRAM\APP.c"
 331  0043  0700     E  	mov a,rb
 331  0044  00CC        	mov [76],a
 332  0045              #line 332 "D:\FJ-Holtek_Project\VSCode\BS66FV350_20200424-C280\USER_PROGRAM\APP.c"
 332  0045  0700     E  	mov a,rc
 332  0046  00CD        	mov [77],a
 332  0047              _L26:
 332  0047              #pragma debug scope 5 1
 332  0047  0003        	ret
 332  0048              _BUZZ_Control endp
 332  0048              #line 332 "D:\FJ-Holtek_Project\VSCode\BS66FV350_20200424-C280\USER_PROGRAM\APP.c"
 332  0048              #pragma debug scope 1 1
 332  0048              public _BUZZ_ActionType
 332  0048              #pragma debug scope 7 1
 342  0048              #line 342 "D:\FJ-Holtek_Project\VSCode\BS66FV350_20200424-C280\USER_PROGRAM\APP.c"
 342  0000              _BUZZ_ActionType .section 'code'
 342  0000              _BUZZ_ActionType proc
文件：APP.c        编译器版本 HGASM 0202 页次12

 342  0000  00              local _BUZZ_ActionType_2 db 1 dup(?)	; 0,1
 345  0001              #line 345 "D:\FJ-Holtek_Project\VSCode\BS66FV350_20200424-C280\USER_PROGRAM\APP.c"
 345  0000  0700     R  	mov a,___buzzTypeOld_2591[0]
 345  0001  0200     R  	sub a,_buzzType[0]
 345  0002  3D0A        	sz z
 345  0003  2800     R  	jmp _L30
 346  0004              #line 346 "D:\FJ-Holtek_Project\VSCode\BS66FV350_20200424-C280\USER_PROGRAM\APP.c"
 346  0004  0700     R  	mov a,_buzzType[0]
 346  0005  0080     R  	mov ___buzzTypeOld_2591[0],a
 347  0006              #line 347 "D:\FJ-Holtek_Project\VSCode\BS66FV350_20200424-C280\USER_PROGRAM\APP.c"
 347  0006  1F00     R  	clr _buzzONTime[0]
 347  0007  1F00     R  	clr _buzzONTime[1]
 347  0008              _L30:
 350  0008              #line 350 "D:\FJ-Holtek_Project\VSCode\BS66FV350_20200424-C280\USER_PROGRAM\APP.c"
 350  0008  0700     R  	mov a,_buzzType[0]
 350  0009  0080     R  	mov _BUZZ_ActionType_2[0],a
 350  000A  0700     R  	mov a,_BUZZ_ActionType_2[0]
 350  000B  0A01        	sub a,1
 350  000C  3D0A        	sz z
 350  000D  2800     R  	jmp _L32
 350  000E  0A01        	sub a,(2)-(1)
 350  000F  3D0A        	sz z
 350  0010  2800     R  	jmp _L33
 350  0011  0700     R  	mov a,_BUZZ_ActionType_2[0]
 350  0012  0A03        	sub a,3
 350  0013  3D0A        	sz z
 350  0014  2800     R  	jmp _L34
 350  0015  0A01        	sub a,(4)-(3)
 350  0016  3D0A        	sz z
 350  0017  2800     R  	jmp _L35
 350  0018  0700     R  	mov a,_BUZZ_ActionType_2[0]
 350  0019  0A05        	sub a,5
 350  001A  3D0A        	sz z
 350  001B  2800     R  	jmp _L36
 350  001C  0700     R  	mov a,_BUZZ_ActionType_2[0]
 350  001D  0A06        	sub a,6
 350  001E  390A        	snz z
 350  001F  2800     R  	jmp _L48
 350  0020  2800     R  	jmp _L52
 350  0021              _L32:
 352  0021              #line 352 "D:\FJ-Holtek_Project\VSCode\BS66FV350_20200424-C280\USER_PROGRAM\APP.c"
 352  0021  0F01        	mov a,1
 352  0022  0300     R  	add a,_buzzONTime[0]
 352  0023  0080     E  	mov rb,a
 352  0024  0F00        	mov a,0
 352  0025  1300     R  	adc a,_buzzONTime[1]
 352  0026  0080     E  	mov rc,a
 352  0027  0700     E  	mov a,rb
 352  0028  0080     R  	mov _buzzONTime[0],a
 352  0029  0700     E  	mov a,rc
 352  002A  0080     R  	mov _buzzONTime[1],a
 352  002B  0FC8        	mov a,200
 352  002C  0200     E  	sub a,rb
 352  002D  0F00        	mov a,0
 352  002E  1200     E  	sbc a,rc
 352  002F  380A        	snz c
 352  0030  2800     R  	jmp _L38
 352  0031              _L45:
 353  0031              #line 353 "D:\FJ-Holtek_Project\VSCode\BS66FV350_20200424-C280\USER_PROGRAM\APP.c"
 353  0031  0FF4        	mov a,-12
文件：APP.c        编译器版本 HGASM 0202 页次13

 353  0032  0080     R  	mov _BUZZ_Control_2[0],a
 353  0033  0F01        	mov a,1
 353  0034  0080     R  	mov _BUZZ_Control_2[1],a
 353  0035  2800     R  	jmp _L49
 353  0036              _L38:
 355  0036              #line 355 "D:\FJ-Holtek_Project\VSCode\BS66FV350_20200424-C280\USER_PROGRAM\APP.c"
 355  0036  0FEE        	mov a,-18
 355  0037  0080     R  	mov _BUZZ_Control_2[0],a
 355  0038  0F02        	mov a,2
 355  0039  0080     R  	mov _BUZZ_Control_2[1],a
 355  003A  2800     R  	jmp _L51
 355  003B              _L33:
 363  003B              #line 363 "D:\FJ-Holtek_Project\VSCode\BS66FV350_20200424-C280\USER_PROGRAM\APP.c"
 363  003B  0F01        	mov a,1
 363  003C  0300     R  	add a,_buzzONTime[0]
 363  003D  0080     E  	mov rb,a
 363  003E  0F00        	mov a,0
 363  003F  1300     R  	adc a,_buzzONTime[1]
 363  0040  0080     E  	mov rc,a
 363  0041  0700     E  	mov a,rb
 363  0042  0080     R  	mov _buzzONTime[0],a
 363  0043  0700     E  	mov a,rc
 363  0044  0080     R  	mov _buzzONTime[1],a
 363  0045  0F2C        	mov a,44
 363  0046  0200     E  	sub a,rb
 363  0047  0F01        	mov a,1
 363  0048  1200     E  	sbc a,rc
 363  0049  380A        	snz c
 363  004A  2800     R  	jmp _L47
 363  004B              _L42:
 364  004B              #line 364 "D:\FJ-Holtek_Project\VSCode\BS66FV350_20200424-C280\USER_PROGRAM\APP.c"
 364  004B  0FEE        	mov a,-18
 364  004C  0080     R  	mov _BUZZ_Control_2[0],a
 364  004D  0F02        	mov a,2
 364  004E  0080     R  	mov _BUZZ_Control_2[1],a
 364  004F  2800     R  	jmp _L49
 364  0050              _L34:
 371  0050              #line 371 "D:\FJ-Holtek_Project\VSCode\BS66FV350_20200424-C280\USER_PROGRAM\APP.c"
 371  0050  0F01        	mov a,1
 371  0051  0300     R  	add a,_buzzONTime[0]
 371  0052  0080     E  	mov rb,a
 371  0053  0F00        	mov a,0
 371  0054  1300     R  	adc a,_buzzONTime[1]
 371  0055  0080     E  	mov rc,a
 371  0056  0700     E  	mov a,rb
 371  0057  0080     R  	mov _buzzONTime[0],a
 371  0058  0700     E  	mov a,rc
 371  0059  0080     R  	mov _buzzONTime[1],a
 371  005A  0F2C        	mov a,44
 371  005B  0200     E  	sub a,rb
 371  005C  0F01        	mov a,1
 371  005D  1200     E  	sbc a,rc
 371  005E  3C0A        	sz c
 371  005F  2800     R  	jmp _L42
 373  0060              #line 373 "D:\FJ-Holtek_Project\VSCode\BS66FV350_20200424-C280\USER_PROGRAM\APP.c"
 373  0060  0F90        	mov a,144
 373  0061  0200     R  	sub a,_buzzONTime[0]
 373  0062  0F01        	mov a,1
 373  0063  1200     R  	sbc a,_buzzONTime[1]
 373  0064  3C0A        	sz c
文件：APP.c        编译器版本 HGASM 0202 页次14

 373  0065  2800     R  	jmp _L48
 375  0066              #line 375 "D:\FJ-Holtek_Project\VSCode\BS66FV350_20200424-C280\USER_PROGRAM\APP.c"
 375  0066  0FBC        	mov a,188
 375  0067  0200     R  	sub a,_buzzONTime[0]
 375  0068  0F02        	mov a,2
 375  0069  1200     R  	sbc a,_buzzONTime[1]
 375  006A  3C0A        	sz c
 375  006B  2800     R  	jmp _L42
 377  006C              #line 377 "D:\FJ-Holtek_Project\VSCode\BS66FV350_20200424-C280\USER_PROGRAM\APP.c"
 377  006C  0F20        	mov a,32
 377  006D  0200     R  	sub a,_buzzONTime[0]
 377  006E  0F03        	mov a,3
 377  006F  1200     R  	sbc a,_buzzONTime[1]
 377  0070  3C0A        	sz c
 377  0071  2800     R  	jmp _L48
 379  0072              #line 379 "D:\FJ-Holtek_Project\VSCode\BS66FV350_20200424-C280\USER_PROGRAM\APP.c"
 379  0072  0F4C        	mov a,76
 379  0073  0200     R  	sub a,_buzzONTime[0]
 379  0074  0F04        	mov a,4
 379  0075  1200     R  	sbc a,_buzzONTime[1]
 379  0076  380A        	snz c
 379  0077  2800     R  	jmp _L47
 379  0078  2800     R  	jmp _L42
 379  0079              _L35:
 387  0079              #line 387 "D:\FJ-Holtek_Project\VSCode\BS66FV350_20200424-C280\USER_PROGRAM\APP.c"
 387  0079  0F01        	mov a,1
 387  007A  0300     R  	add a,_buzzONTime[0]
 387  007B  0080     E  	mov rb,a
 387  007C  0F00        	mov a,0
 387  007D  1300     R  	adc a,_buzzONTime[1]
 387  007E  0080     E  	mov rc,a
 387  007F  0700     E  	mov a,rb
 387  0080  0080     R  	mov _buzzONTime[0],a
 387  0081  0700     E  	mov a,rc
 387  0082  0080     R  	mov _buzzONTime[1],a
 387  0083  0F64        	mov a,100
 387  0084  0200     E  	sub a,rb
 387  0085  0F00        	mov a,0
 387  0086  1200     E  	sbc a,rc
 387  0087  3C0A        	sz c
 387  0088  2800     R  	jmp _L45
 389  0089              #line 389 "D:\FJ-Holtek_Project\VSCode\BS66FV350_20200424-C280\USER_PROGRAM\APP.c"
 389  0089  0FC8        	mov a,200
 389  008A  0200     R  	sub a,_buzzONTime[0]
 389  008B  0F00        	mov a,0
 389  008C  1200     R  	sbc a,_buzzONTime[1]
 389  008D  3C0A        	sz c
 389  008E  2800     R  	jmp _L42
 391  008F              #line 391 "D:\FJ-Holtek_Project\VSCode\BS66FV350_20200424-C280\USER_PROGRAM\APP.c"
 391  008F  0F2C        	mov a,44
 391  0090  0200     R  	sub a,_buzzONTime[0]
 391  0091  0F01        	mov a,1
 391  0092  1200     R  	sbc a,_buzzONTime[1]
 391  0093  3C0A        	sz c
 391  0094  2800     R  	jmp _L48
 393  0095              #line 393 "D:\FJ-Holtek_Project\VSCode\BS66FV350_20200424-C280\USER_PROGRAM\APP.c"
 393  0095  0F90        	mov a,144
 393  0096  0200     R  	sub a,_buzzONTime[0]
 393  0097  0F01        	mov a,1
 393  0098  1200     R  	sbc a,_buzzONTime[1]
文件：APP.c        编译器版本 HGASM 0202 页次15

 393  0099  3C0A        	sz c
 393  009A  2800     R  	jmp _L45
 395  009B              #line 395 "D:\FJ-Holtek_Project\VSCode\BS66FV350_20200424-C280\USER_PROGRAM\APP.c"
 395  009B  0FF4        	mov a,244
 395  009C  0200     R  	sub a,_buzzONTime[0]
 395  009D  0F01        	mov a,1
 395  009E  1200     R  	sbc a,_buzzONTime[1]
 395  009F  3C0A        	sz c
 395  00A0  2800     R  	jmp _L42
 397  00A1              #line 397 "D:\FJ-Holtek_Project\VSCode\BS66FV350_20200424-C280\USER_PROGRAM\APP.c"
 397  00A1  0F58        	mov a,88
 397  00A2  0200     R  	sub a,_buzzONTime[0]
 397  00A3  0F02        	mov a,2
 397  00A4  1200     R  	sbc a,_buzzONTime[1]
 397  00A5  3C0A        	sz c
 397  00A6  2800     R  	jmp _L48
 399  00A7              #line 399 "D:\FJ-Holtek_Project\VSCode\BS66FV350_20200424-C280\USER_PROGRAM\APP.c"
 399  00A7  0FBC        	mov a,188
 399  00A8  0200     R  	sub a,_buzzONTime[0]
 399  00A9  0F02        	mov a,2
 399  00AA  1200     R  	sbc a,_buzzONTime[1]
 399  00AB  3C0A        	sz c
 399  00AC  2800     R  	jmp _L45
 401  00AD              #line 401 "D:\FJ-Holtek_Project\VSCode\BS66FV350_20200424-C280\USER_PROGRAM\APP.c"
 401  00AD  0F20        	mov a,32
 401  00AE  0200     R  	sub a,_buzzONTime[0]
 401  00AF  0F03        	mov a,3
 401  00B0  1200     R  	sbc a,_buzzONTime[1]
 401  00B1  380A        	snz c
 401  00B2  2800     R  	jmp _L47
 401  00B3  2800     R  	jmp _L42
 401  00B4              _L36:
 409  00B4              #line 409 "D:\FJ-Holtek_Project\VSCode\BS66FV350_20200424-C280\USER_PROGRAM\APP.c"
 409  00B4  0F01        	mov a,1
 409  00B5  0300     R  	add a,_buzzONTime[0]
 409  00B6  0080     E  	mov rb,a
 409  00B7  0F00        	mov a,0
 409  00B8  1300     R  	adc a,_buzzONTime[1]
 409  00B9  0080     E  	mov rc,a
 409  00BA  0700     E  	mov a,rb
 409  00BB  0080     R  	mov _buzzONTime[0],a
 409  00BC  0700     E  	mov a,rc
 409  00BD  0080     R  	mov _buzzONTime[1],a
 409  00BE  0FC8        	mov a,200
 409  00BF  0200     E  	sub a,rb
 409  00C0  0F00        	mov a,0
 409  00C1  1200     E  	sbc a,rc
 409  00C2  3C0A        	sz c
 409  00C3  2800     R  	jmp _L42
 412  00C4              #line 412 "D:\FJ-Holtek_Project\VSCode\BS66FV350_20200424-C280\USER_PROGRAM\APP.c"
 412  00C4  0FF4        	mov a,-12
 412  00C5  0080     R  	mov _BUZZ_Control_2[0],a
 412  00C6  0F01        	mov a,1
 412  00C7  0080     R  	mov _BUZZ_Control_2[1],a
 412  00C8              _L51:
 412  00C8  2000     R  	call _BUZZ_Control
 413  00C9              #line 413 "D:\FJ-Holtek_Project\VSCode\BS66FV350_20200424-C280\USER_PROGRAM\APP.c"
 413  00C9  0FF3        	mov a,243
 413  00CA  0200     R  	sub a,_buzzONTime[0]
 413  00CB  0F01        	mov a,1
文件：APP.c        编译器版本 HGASM 0202 页次16

 413  00CC  1200     R  	sbc a,_buzzONTime[1]
 413  00CD  3C0A        	sz c
 413  00CE  2800     R  	jmp _L29
 413  00CF  2800     R  	jmp _L47
 413  00D0              _L52:
 420  00D0              #line 420 "D:\FJ-Holtek_Project\VSCode\BS66FV350_20200424-C280\USER_PROGRAM\APP.c"
 420  00D0  0F01        	mov a,1
 420  00D1  0300     R  	add a,_buzzONTime[0]
 420  00D2  0080     E  	mov rb,a
 420  00D3  0F00        	mov a,0
 420  00D4  1300     R  	adc a,_buzzONTime[1]
 420  00D5  0080     E  	mov rc,a
 420  00D6  0700     E  	mov a,rb
 420  00D7  0080     R  	mov _buzzONTime[0],a
 420  00D8  0700     E  	mov a,rc
 420  00D9  0080     R  	mov _buzzONTime[1],a
 420  00DA  0F84        	mov a,132
 420  00DB  0200     E  	sub a,rb
 420  00DC  0F03        	mov a,3
 420  00DD  1200     E  	sbc a,rc
 420  00DE  380A        	snz c
 420  00DF  2800     R  	jmp _L47
 421  00E0              #line 421 "D:\FJ-Holtek_Project\VSCode\BS66FV350_20200424-C280\USER_PROGRAM\APP.c"
 421  00E0  0FA0        	mov a,-96
 421  00E1  0080     R  	mov _BUZZ_Control_2[0],a
 421  00E2  0F0F        	mov a,15
 421  00E3  0080     R  	mov _BUZZ_Control_2[1],a
 421  00E4  2800     R  	jmp _L49
 421  00E5              _L47:
 423  00E5              #line 423 "D:\FJ-Holtek_Project\VSCode\BS66FV350_20200424-C280\USER_PROGRAM\APP.c"
 423  00E5  1F00     R  	clr _buzzType[0]
 424  00E6              #line 424 "D:\FJ-Holtek_Project\VSCode\BS66FV350_20200424-C280\USER_PROGRAM\APP.c"
 424  00E6  1F00     R  	clr ___buzzTypeOld_2591[0]
 424  00E7  2800     R  	jmp _L29
 424  00E8              _L48:
 428  00E8              #line 428 "D:\FJ-Holtek_Project\VSCode\BS66FV350_20200424-C280\USER_PROGRAM\APP.c"
 428  00E8  1F00     R  	clr _BUZZ_Control_2[0]
 428  00E9  1F00     R  	clr _BUZZ_Control_2[1]
 428  00EA              _L49:
 428  00EA  2000     R  	call _BUZZ_Control
 428  00EB              _L29:
 428  00EB  0003        	ret
 428  00EC              _BUZZ_ActionType endp
 428  00EC              #line 428 "D:\FJ-Holtek_Project\VSCode\BS66FV350_20200424-C280\USER_PROGRAM\APP.c"
 428  00EC              #pragma debug scope 1 1
 428  00EC              ___pd equ [39]
 428  00EC              ___pa equ [20]
 428  00EC              ___pe equ [112]
 428  00EC              public _LED_SegmentCode
 428  00EC              #pragma debug scope 8 1
 437  00EC              #line 437 "D:\FJ-Holtek_Project\VSCode\BS66FV350_20200424-C280\USER_PROGRAM\APP.c"
 437  0000              _LED_SegmentCode .section 'code'
 437  0000              _LED_SegmentCode proc
 437  0000  0002[           local _LED_SegmentCode_2 db 2 dup(?)	; 0,2
            00
            ]
 437  0000  0080     R  	mov _LED_SegmentCode_2[0],a
 437  0001              #pragma debug variable 8 8 _LED_SegmentCode_2+0 "ledCode"
 437  0001              #pragma debug variable 8 8 _LED_SegmentCode_2+1 "i"
 437  0001  0F08        	mov a,8
文件：APP.c        编译器版本 HGASM 0202 页次17

 437  0002  0080     E  	mov ra,a
 441  0003              #line 441 "D:\FJ-Holtek_Project\VSCode\BS66FV350_20200424-C280\USER_PROGRAM\APP.c"
 441  0003  1F00     R  	clr _LED_SegmentCode_2[1]
 441  0004              _L64:
 442  0004              #line 442 "D:\FJ-Holtek_Project\VSCode\BS66FV350_20200424-C280\USER_PROGRAM\APP.c"
 442  0004  0700     R  	mov a,_LED_SegmentCode_2[0]
 442  0005  0080     E  	mov rb,a
 442  0006  1F00     E  	clr rc
 442  0007  1400     R  	inca _LED_SegmentCode_2[1]
 442  0008  2800     R  	jmp _LI3
 442  0009              _LI4:
 442  0009  340A        	clr c
 442  000A  3C00     E  	sz rc.7
 442  000B  300A        	set c
 442  000C  1B80     E  	rrc rc
 442  000D  1B80     E  	rrc rb
 442  000E              _LI3:
 442  000E  1785        	sdz acc
 442  000F  2800     R  	jmp _LI4
 442  0010  0F01        	mov a,1  
 442  0011  0680     E  	andm a,rb  
 442  0012  0F00        	mov a,0  
 442  0013  0680     E  	andm a,rc
 442  0014  0F00        	mov a,0
 442  0015  0480     E  	xorm a,rc
 442  0016  0F01        	mov a,1
 442  0017  0480     E  	xorm a,rb
 442  0018  0F01        	mov a,1
 442  0019  0680     E  	andm a,rb
 447  001A              #line 447 "D:\FJ-Holtek_Project\VSCode\BS66FV350_20200424-C280\USER_PROGRAM\APP.c"
 447  001A  0700     R  	mov a,_LED_SegmentCode_2[1]
 447  001B  0A01        	sub a,1
 447  001C  3D0A        	sz z
 447  001D  2800     R  	jmp _L55
 447  001E  0A01        	sub a,(2)-(1)
 447  001F  3D0A        	sz z
 447  0020  2800     R  	jmp _L56
 447  0021  0700     R  	mov a,_LED_SegmentCode_2[1]
 447  0022  0A03        	sub a,3
 447  0023  3D0A        	sz z
 447  0024  2800     R  	jmp _L57
 447  0025  0A01        	sub a,(4)-(3)
 447  0026  3D0A        	sz z
 447  0027  2800     R  	jmp _L58
 447  0028  0700     R  	mov a,_LED_SegmentCode_2[1]
 447  0029  0A05        	sub a,5
 447  002A  3D0A        	sz z
 447  002B  2800     R  	jmp _L59
 447  002C  0A01        	sub a,(6)-(5)
 447  002D  3D0A        	sz z
 447  002E  2800     R  	jmp _L60
 447  002F  0700     R  	mov a,_LED_SegmentCode_2[1]
 447  0030  0A07        	sub a,7
 447  0031  3D0A        	sz z
 447  0032  2800     R  	jmp _L61
 449  0033              #line 449 "D:\FJ-Holtek_Project\VSCode\BS66FV350_20200424-C280\USER_PROGRAM\APP.c"
 449  0033  1B80     E  	rrc rb
 449  0034  1F00     E  	clr rb
 449  0035  1B80     E  	rrc rb
 449  0036  37A7        	clr [39].7
文件：APP.c        编译器版本 HGASM 0202 页次18

 449  0037  2800     R  	jmp _L65
 449  0038              _L55:
 452  0038              #line 452 "D:\FJ-Holtek_Project\VSCode\BS66FV350_20200424-C280\USER_PROGRAM\APP.c"
 452  0038  1100     E  	swapa rb
 452  0039  1885        	rl acc
 452  003A  0EE0        	and a,0e0h
 452  003B  0080     E  	mov rb,a
 452  003C  36A7        	clr [39].5
 452  003D              _L65:
 452  003D  0700     E  	mov a,rb
 452  003E  05A7        	orm a,[39]
 453  003F              #line 453 "D:\FJ-Holtek_Project\VSCode\BS66FV350_20200424-C280\USER_PROGRAM\APP.c"
 453  003F  2800     R  	jmp _L62
 453  0040              _L56:
 455  0040              #line 455 "D:\FJ-Holtek_Project\VSCode\BS66FV350_20200424-C280\USER_PROGRAM\APP.c"
 455  0040  1100     E  	swapa rb
 455  0041  0EF0        	and a,0f0h 
 455  0042  0080     E  	mov rb,a
 455  0043  3614        	clr [20].4
 455  0044  2800     R  	jmp _L67
 455  0045              _L57:
 458  0045              #line 458 "D:\FJ-Holtek_Project\VSCode\BS66FV350_20200424-C280\USER_PROGRAM\APP.c"
 458  0045  1900     E  	rra rb
 458  0046  1985        	rr acc
 458  0047  0EC0        	and a,0c0h
 458  0048  0080     E  	mov rb,a
 458  0049  3714        	clr [20].6
 458  004A              _L67:
 458  004A  0700     E  	mov a,rb
 458  004B  0594        	orm a,[20]
 459  004C              #line 459 "D:\FJ-Holtek_Project\VSCode\BS66FV350_20200424-C280\USER_PROGRAM\APP.c"
 459  004C  2800     R  	jmp _L62
 459  004D              _L58:
 461  004D              #line 461 "D:\FJ-Holtek_Project\VSCode\BS66FV350_20200424-C280\USER_PROGRAM\APP.c"
 461  004D  3418        	clr [24].0
 461  004E  2800     R  	jmp _L66
 461  004F              _L59:
 464  004F              #line 464 "D:\FJ-Holtek_Project\VSCode\BS66FV350_20200424-C280\USER_PROGRAM\APP.c"
 464  004F  1900     E  	rra rb
 464  0050  1985        	rr acc
 464  0051  0EC0        	and a,0c0h
 464  0052  0080     E  	mov rb,a
 464  0053  3718        	clr [24].6
 464  0054              _L66:
 464  0054  0700     E  	mov a,rb
 464  0055  0598        	orm a,[24]
 465  0056              #line 465 "D:\FJ-Holtek_Project\VSCode\BS66FV350_20200424-C280\USER_PROGRAM\APP.c"
 465  0056  2800     R  	jmp _L62
 465  0057              _L60:
 467  0057              #line 467 "D:\FJ-Holtek_Project\VSCode\BS66FV350_20200424-C280\USER_PROGRAM\APP.c"
 467  0057  1900     E  	rra rb
 467  0058  1985        	rr acc
 467  0059  0EC0        	and a,0c0h
 467  005A  0080     E  	mov rb,a
 467  005B  3727        	clr [39].6
 467  005C  2800     R  	jmp _L65
 467  005D              _L61:
 470  005D              #line 470 "D:\FJ-Holtek_Project\VSCode\BS66FV350_20200424-C280\USER_PROGRAM\APP.c"
 470  005D  3470        	clr [112].0
 470  005E  0700     E  	mov a,rb
文件：APP.c        编译器版本 HGASM 0202 页次19

 470  005F  05F0        	orm a,[112]
 470  0060              _L62:
 441  0060              #line 441 "D:\FJ-Holtek_Project\VSCode\BS66FV350_20200424-C280\USER_PROGRAM\APP.c"
 441  0060  1480     R  	inc _LED_SegmentCode_2[1]
 441  0061  1780     E  	sdz ra
 441  0062  2800     R  	jmp _L64
 441  0063  0003        	ret
 441  0064              _LED_SegmentCode endp
 441  0064              #line 441 "D:\FJ-Holtek_Project\VSCode\BS66FV350_20200424-C280\USER_PROGRAM\APP.c"
 441  0064              #pragma debug scope 1 1
 441  0064              public _LED_Control
 441  0064              #pragma debug scope 9 1
 477  0064              #line 477 "D:\FJ-Holtek_Project\VSCode\BS66FV350_20200424-C280\USER_PROGRAM\APP.c"
 477  0000              _LED_Control .section 'code'
 477  0000              _LED_Control proc
 477  0000              public _LED_Control_2
 477  0000  0003[           local _LED_Control_2 db 3 dup(?)	; 2,1
            00
            ]
 477  0003              #pragma debug variable 10 9 _LED_Control_2+0 "ledState"
 479  0003              #line 479 "D:\FJ-Holtek_Project\VSCode\BS66FV350_20200424-C280\USER_PROGRAM\APP.c"
 479  0000  0700     R  	mov a,_LED_Control_2[0]
 479  0001  0500     R  	or a,_LED_Control_2[1]
 479  0002  390A        	snz z
 479  0003  2800     R  	jmp _L69
 480  0004              #line 480 "D:\FJ-Holtek_Project\VSCode\BS66FV350_20200424-C280\USER_PROGRAM\APP.c"
 480  0004  30F0        	set [112].1
 481  0005              #line 481 "D:\FJ-Holtek_Project\VSCode\BS66FV350_20200424-C280\USER_PROGRAM\APP.c"
 481  0005  3170        	set [112].2
 482  0006              #line 482 "D:\FJ-Holtek_Project\VSCode\BS66FV350_20200424-C280\USER_PROGRAM\APP.c"
 482  0006  2800     R  	jmp _L68
 482  0007              _L69:
 484  0007              #line 484 "D:\FJ-Holtek_Project\VSCode\BS66FV350_20200424-C280\USER_PROGRAM\APP.c"
 484  0007  0F00        	mov a,0
 484  0008  2000     R  	call _LED_SegmentCode
 485  0009              #line 485 "D:\FJ-Holtek_Project\VSCode\BS66FV350_20200424-C280\USER_PROGRAM\APP.c"
 485  0009  0700     R  	mov a,___com_2620[0]
 485  000A  0080     R  	mov _LED_Control_2[2],a
 485  000B  1E00     R  	snz _LED_Control_2[2]
 485  000C  2800     R  	jmp _L71
 486  000D              #line 486 "D:\FJ-Holtek_Project\VSCode\BS66FV350_20200424-C280\USER_PROGRAM\APP.c"
 486  000D  34F0        	clr [112].1
 487  000E              #line 487 "D:\FJ-Holtek_Project\VSCode\BS66FV350_20200424-C280\USER_PROGRAM\APP.c"
 487  000E  3170        	set [112].2
 488  000F              #line 488 "D:\FJ-Holtek_Project\VSCode\BS66FV350_20200424-C280\USER_PROGRAM\APP.c"
 488  000F  0700     R  	mov a,_LED_Control_2[0]
 488  0010  2800     R  	jmp _L77
 488  0011              _L71:
 490  0011              #line 490 "D:\FJ-Holtek_Project\VSCode\BS66FV350_20200424-C280\USER_PROGRAM\APP.c"
 490  0011  30F0        	set [112].1
 491  0012              #line 491 "D:\FJ-Holtek_Project\VSCode\BS66FV350_20200424-C280\USER_PROGRAM\APP.c"
 491  0012  3570        	clr [112].2
 492  0013              #line 492 "D:\FJ-Holtek_Project\VSCode\BS66FV350_20200424-C280\USER_PROGRAM\APP.c"
 492  0013  0700     R  	mov a,_LED_Control_2[0]
 492  0014  0080     E  	mov rb,a
 492  0015  0700     R  	mov a,_LED_Control_2[1]
 492  0016  0080     E  	mov rc,a
 492  0017  0700     E  	mov a,rc
 492  0018  0080     E  	mov rb,a
 492  0019  1F00     E  	clr rc
文件：APP.c        编译器版本 HGASM 0202 页次20

 492  001A  0700     E  	mov a,rb
 492  001B              _L77:
 492  001B  2000     R  	call _LED_SegmentCode
 494  001C              #line 494 "D:\FJ-Holtek_Project\VSCode\BS66FV350_20200424-C280\USER_PROGRAM\APP.c"
 494  001C  0F01        	mov a,1
 494  001D  0080     E  	mov ra,a
 494  001E  1E00     R  	snz _LED_Control_2[2]
 494  001F  2800     R  	jmp _L73
 494  0020  1F00     E  	clr ra
 494  0021              _L73:
 494  0021  0700     E  	mov a,ra
 494  0022  0080     R  	mov ___com_2620[0],a
 494  0023              _L68:
 494  0023  0003        	ret
 494  0024              _LED_Control endp
 494  0024              #line 494 "D:\FJ-Holtek_Project\VSCode\BS66FV350_20200424-C280\USER_PROGRAM\APP.c"
 494  0024              #pragma debug scope 1 1
 494  0024              public _Mode_Contorl
 494  0024              #pragma debug scope 10 1
 532  0024              #line 532 "D:\FJ-Holtek_Project\VSCode\BS66FV350_20200424-C280\USER_PROGRAM\APP.c"
 532  0000              _Mode_Contorl .section 'code'
 532  0000              _Mode_Contorl proc
 533  0000              #line 533 "D:\FJ-Holtek_Project\VSCode\BS66FV350_20200424-C280\USER_PROGRAM\APP.c"
 533  0000  0F01        	mov a,1
 533  0001  0080     E  	mov ra,a
 533  0002  1E00     R  	snz _tksFun[2]
 533  0003  2800     R  	jmp _L79
 533  0004              #line 533 "D:\FJ-Holtek_Project\VSCode\BS66FV350_20200424-C280\USER_PROGRAM\APP.c"
 533  0004  1F00     E  	clr ra
 533  0005              _L79:
 533  0005  0700     E  	mov a,ra
 533  0006  0080     R  	mov _tksFun[2],a
 535  0007              #line 535 "D:\FJ-Holtek_Project\VSCode\BS66FV350_20200424-C280\USER_PROGRAM\APP.c"
 535  0007  1E00     R  	snz _tksFun[2]
 535  0008  2800     R  	jmp _L80
 536  0009              #line 536 "D:\FJ-Holtek_Project\VSCode\BS66FV350_20200424-C280\USER_PROGRAM\APP.c"
 536  0009  0F01        	mov a,1
 536  000A  0080     R  	mov _nixTubeDisType[0],a
 538  000B              #line 538 "D:\FJ-Holtek_Project\VSCode\BS66FV350_20200424-C280\USER_PROGRAM\APP.c"
 538  000B  3000     R  	set _ledUnion[1].3
 539  000C              #line 539 "D:\FJ-Holtek_Project\VSCode\BS66FV350_20200424-C280\USER_PROGRAM\APP.c"
 539  000C  3000     R  	set _ledUnion[1].7
 540  000D              #line 540 "D:\FJ-Holtek_Project\VSCode\BS66FV350_20200424-C280\USER_PROGRAM\APP.c"
 540  000D  3400     R  	clr _ledUnion[1].2
 541  000E              #line 541 "D:\FJ-Holtek_Project\VSCode\BS66FV350_20200424-C280\USER_PROGRAM\APP.c"
 541  000E  3400     R  	clr _ledUnion[1].5
 541  000F  2800     R  	jmp _L78
 541  0010              _L80:
 543  0010              #line 543 "D:\FJ-Holtek_Project\VSCode\BS66FV350_20200424-C280\USER_PROGRAM\APP.c"
 543  0010  1F00     R  	clr _nixTubeDisType[0]
 545  0011              #line 545 "D:\FJ-Holtek_Project\VSCode\BS66FV350_20200424-C280\USER_PROGRAM\APP.c"
 545  0011  3000     R  	set _ledUnion[1].2
 546  0012              #line 546 "D:\FJ-Holtek_Project\VSCode\BS66FV350_20200424-C280\USER_PROGRAM\APP.c"
 546  0012  3000     R  	set _ledUnion[1].5
 547  0013              #line 547 "D:\FJ-Holtek_Project\VSCode\BS66FV350_20200424-C280\USER_PROGRAM\APP.c"
 547  0013  3400     R  	clr _ledUnion[1].3
 548  0014              #line 548 "D:\FJ-Holtek_Project\VSCode\BS66FV350_20200424-C280\USER_PROGRAM\APP.c"
 548  0014  3400     R  	clr _ledUnion[1].7
 548  0015              _L78:
 548  0015  0003        	ret
文件：APP.c        编译器版本 HGASM 0202 页次21

 548  0016              _Mode_Contorl endp
 548  0016              #line 548 "D:\FJ-Holtek_Project\VSCode\BS66FV350_20200424-C280\USER_PROGRAM\APP.c"
 548  0016              #pragma debug scope 1 1
 548  0016              public _Up_Contorl
 548  0016              #pragma debug scope 11 1
 557  0016              #line 557 "D:\FJ-Holtek_Project\VSCode\BS66FV350_20200424-C280\USER_PROGRAM\APP.c"
 557  0000              _Up_Contorl .section 'code'
 557  0000              _Up_Contorl proc
 558  0000              #line 558 "D:\FJ-Holtek_Project\VSCode\BS66FV350_20200424-C280\USER_PROGRAM\APP.c"
 558  0000  1E00     R  	snz _tksFun[2]
 558  0001  2800     R  	jmp _L86
 559  0002              #line 559 "D:\FJ-Holtek_Project\VSCode\BS66FV350_20200424-C280\USER_PROGRAM\APP.c"
 559  0002  0F1D        	mov a,29
 559  0003  0200     R  	sub a,_tksFun[0]
 559  0004  380A        	snz c
 559  0005  2800     R  	jmp _L85
 560  0006              #line 560 "D:\FJ-Holtek_Project\VSCode\BS66FV350_20200424-C280\USER_PROGRAM\APP.c"
 560  0006  1480     R  	inc _tksFun[0]
 561  0007              #line 561 "D:\FJ-Holtek_Project\VSCode\BS66FV350_20200424-C280\USER_PROGRAM\APP.c"
 561  0007  0700     R  	mov a,_tksFun[0]
 561  0008  0080     E  	mov _builtin_holtek_mulhi3_2[0],a
 561  0009  1F00     E  	clr _builtin_holtek_mulhi3_2[1]
 561  000A  0F3C        	mov a,60
 561  000B  0080     E  	mov _builtin_holtek_mulhi3_2[2],a
 561  000C  0F00        	mov a,0
 561  000D  0080     E  	mov _builtin_holtek_mulhi3_2[3],a
 561  000E  2000     E  	call _builtin_holtek_mulhi3
 561  000F  0700     E  	mov a,_builtin_holtek_mulhi3_2[4]  
 561  0010  0080     R  	mov _sysWork[0],a  
 561  0011  0700     E  	mov a,_builtin_holtek_mulhi3_2[5]  
 561  0012  0080     R  	mov _sysWork[1],a
 561  0013  2800     R  	jmp _L85
 561  0014              _L86:
 564  0014              #line 564 "D:\FJ-Holtek_Project\VSCode\BS66FV350_20200424-C280\USER_PROGRAM\APP.c"
 564  0014  0F07        	mov a,7
 564  0015  0200     R  	sub a,_tksFun[1]
 564  0016  380A        	snz c
 564  0017  2800     R  	jmp _L85
 565  0018              #line 565 "D:\FJ-Holtek_Project\VSCode\BS66FV350_20200424-C280\USER_PROGRAM\APP.c"
 565  0018  1480     R  	inc _tksFun[1]
 566  0019              #line 566 "D:\FJ-Holtek_Project\VSCode\BS66FV350_20200424-C280\USER_PROGRAM\APP.c"
 566  0019  0700     R  	mov a,_tksFun[1]
 566  001A  0080     E  	mov rb,a
 566  001B  1F00     E  	clr rc
 566  001C  340A        	clr c
 566  001D  1A00     E  	rlca rb
 566  001E  0080     E  	mov rd,a
 566  001F  1A00     E  	rlca rc
 566  0020  0080     E  	mov re,a
 566  0021  340A        	clr c
 566  0022  1A80     E  	rlc rd
 566  0023  1A80     E  	rlc re
 566  0024  0700     E  	mov a,rd
 566  0025  0380     E  	addm a,rb
 566  0026  0700     E  	mov a,re
 566  0027  1380     E  	adcm a,rc
 566  0028  340A        	clr c
 566  0029  1A80     E  	rlc rb
 566  002A  1A80     E  	rlc rc
 566  002B  0F96        	mov a,150
文件：APP.c        编译器版本 HGASM 0202 页次22

 566  002C  0300     E  	add a,rb
 566  002D  0080     R  	mov _sysWork[2],a
 566  002E  0F00        	mov a,0
 566  002F  1300     E  	adc a,rc
 566  0030  0080     R  	mov _sysWork[3],a
 566  0031              _L85:
 566  0031  0003        	ret
 566  0032              _Up_Contorl endp
 566  0032              #line 566 "D:\FJ-Holtek_Project\VSCode\BS66FV350_20200424-C280\USER_PROGRAM\APP.c"
 566  0032              #pragma debug scope 1 1
 566  0032              public _Down_Contorl
 566  0032              #pragma debug scope 12 1
 579  0032              #line 579 "D:\FJ-Holtek_Project\VSCode\BS66FV350_20200424-C280\USER_PROGRAM\APP.c"
 579  0000              _Down_Contorl .section 'code'
 579  0000              _Down_Contorl proc
 580  0000              #line 580 "D:\FJ-Holtek_Project\VSCode\BS66FV350_20200424-C280\USER_PROGRAM\APP.c"
 580  0000  1E00     R  	snz _tksFun[2]
 580  0001  2800     R  	jmp _L89
 581  0002              #line 581 "D:\FJ-Holtek_Project\VSCode\BS66FV350_20200424-C280\USER_PROGRAM\APP.c"
 581  0002  0F01        	mov a,1
 581  0003  0200     R  	sub a,_tksFun[0]
 581  0004  3C0A        	sz c
 581  0005  2800     R  	jmp _L88
 582  0006              #line 582 "D:\FJ-Holtek_Project\VSCode\BS66FV350_20200424-C280\USER_PROGRAM\APP.c"
 582  0006  1580     R  	dec _tksFun[0]
 583  0007              #line 583 "D:\FJ-Holtek_Project\VSCode\BS66FV350_20200424-C280\USER_PROGRAM\APP.c"
 583  0007  0700     R  	mov a,_tksFun[0]
 583  0008  0080     E  	mov _builtin_holtek_mulhi3_2[0],a
 583  0009  1F00     E  	clr _builtin_holtek_mulhi3_2[1]
 583  000A  0F3C        	mov a,60
 583  000B  0080     E  	mov _builtin_holtek_mulhi3_2[2],a
 583  000C  0F00        	mov a,0
 583  000D  0080     E  	mov _builtin_holtek_mulhi3_2[3],a
 583  000E  2000     E  	call _builtin_holtek_mulhi3
 583  000F  0700     E  	mov a,_builtin_holtek_mulhi3_2[4]  
 583  0010  0080     R  	mov _sysWork[0],a  
 583  0011  0700     E  	mov a,_builtin_holtek_mulhi3_2[5]  
 583  0012  0080     R  	mov _sysWork[1],a
 583  0013  2800     R  	jmp _L88
 583  0014              _L89:
 586  0014              #line 586 "D:\FJ-Holtek_Project\VSCode\BS66FV350_20200424-C280\USER_PROGRAM\APP.c"
 586  0014  1E00     R  	snz _tksFun[1]
 586  0015  2800     R  	jmp _L88
 587  0016              #line 587 "D:\FJ-Holtek_Project\VSCode\BS66FV350_20200424-C280\USER_PROGRAM\APP.c"
 587  0016  1580     R  	dec _tksFun[1]
 588  0017              #line 588 "D:\FJ-Holtek_Project\VSCode\BS66FV350_20200424-C280\USER_PROGRAM\APP.c"
 588  0017  0700     R  	mov a,_tksFun[1]
 588  0018  0080     E  	mov rb,a
 588  0019  1F00     E  	clr rc
 588  001A  340A        	clr c
 588  001B  1A00     E  	rlca rb
 588  001C  0080     E  	mov rd,a
 588  001D  1A00     E  	rlca rc
 588  001E  0080     E  	mov re,a
 588  001F  340A        	clr c
 588  0020  1A80     E  	rlc rd
 588  0021  1A80     E  	rlc re
 588  0022  0700     E  	mov a,rd
 588  0023  0380     E  	addm a,rb
 588  0024  0700     E  	mov a,re
文件：APP.c        编译器版本 HGASM 0202 页次23

 588  0025  1380     E  	adcm a,rc
 588  0026  340A        	clr c
 588  0027  1A80     E  	rlc rb
 588  0028  1A80     E  	rlc rc
 588  0029  0F96        	mov a,150
 588  002A  0300     E  	add a,rb
 588  002B  0080     R  	mov _sysWork[2],a
 588  002C  0F00        	mov a,0
 588  002D  1300     E  	adc a,rc
 588  002E  0080     R  	mov _sysWork[3],a
 588  002F              _L88:
 588  002F  0003        	ret
 588  0030              _Down_Contorl endp
 588  0030              #line 588 "D:\FJ-Holtek_Project\VSCode\BS66FV350_20200424-C280\USER_PROGRAM\APP.c"
 588  0030              #pragma debug scope 1 1
 588  0030              public _NixieTube_SegmentCode
 588  0030              #pragma debug scope 13 1
 605  0030              #line 605 "D:\FJ-Holtek_Project\VSCode\BS66FV350_20200424-C280\USER_PROGRAM\APP.c"
 605  0000              _NixieTube_SegmentCode .section 'code'
 605  0000              _NixieTube_SegmentCode proc
 605  0000  0002[           local _NixieTube_SegmentCode_2 db 2 dup(?)	; 0,2
            00
            ]
 605  0000  0080     R  	mov _NixieTube_SegmentCode_2[0],a
 605  0001              #pragma debug variable 8 13 _NixieTube_SegmentCode_2+0 "code"
 605  0001              #pragma debug variable 8 13 _NixieTube_SegmentCode_2+1 "i"
 605  0001  0F08        	mov a,8
 605  0002  0080     E  	mov ra,a
 608  0003              #line 608 "D:\FJ-Holtek_Project\VSCode\BS66FV350_20200424-C280\USER_PROGRAM\APP.c"
 608  0003  1F00     R  	clr _NixieTube_SegmentCode_2[1]
 608  0004              _L105:
 609  0004              #line 609 "D:\FJ-Holtek_Project\VSCode\BS66FV350_20200424-C280\USER_PROGRAM\APP.c"
 609  0004  0700     R  	mov a,_NixieTube_SegmentCode_2[0]
 609  0005  0080     E  	mov rb,a
 609  0006  1F00     E  	clr rc
 609  0007  1400     R  	inca _NixieTube_SegmentCode_2[1]
 609  0008  2800     R  	jmp _LI5
 609  0009              _LI6:
 609  0009  340A        	clr c
 609  000A  3C00     E  	sz rc.7
 609  000B  300A        	set c
 609  000C  1B80     E  	rrc rc
 609  000D  1B80     E  	rrc rb
 609  000E              _LI5:
 609  000E  1785        	sdz acc
 609  000F  2800     R  	jmp _LI6
 609  0010  0F01        	mov a,1  
 609  0011  0680     E  	andm a,rb  
 609  0012  0F00        	mov a,0  
 609  0013  0680     E  	andm a,rc
 609  0014  0F00        	mov a,0
 609  0015  0480     E  	xorm a,rc
 609  0016  0F01        	mov a,1
 609  0017  0480     E  	xorm a,rb
 609  0018  0F01        	mov a,1
 609  0019  0680     E  	andm a,rb
 614  001A              #line 614 "D:\FJ-Holtek_Project\VSCode\BS66FV350_20200424-C280\USER_PROGRAM\APP.c"
 614  001A  0700     R  	mov a,_NixieTube_SegmentCode_2[1]
 614  001B  0A01        	sub a,1
 614  001C  3D0A        	sz z
文件：APP.c        编译器版本 HGASM 0202 页次24

 614  001D  2800     R  	jmp _L96
 614  001E  0A01        	sub a,(2)-(1)
 614  001F  3D0A        	sz z
 614  0020  2800     R  	jmp _L97
 614  0021  0700     R  	mov a,_NixieTube_SegmentCode_2[1]
 614  0022  0A03        	sub a,3
 614  0023  3D0A        	sz z
 614  0024  2800     R  	jmp _L98
 614  0025  0A01        	sub a,(4)-(3)
 614  0026  3D0A        	sz z
 614  0027  2800     R  	jmp _L99
 614  0028  0700     R  	mov a,_NixieTube_SegmentCode_2[1]
 614  0029  0A05        	sub a,5
 614  002A  3D0A        	sz z
 614  002B  2800     R  	jmp _L100
 614  002C  0A01        	sub a,(6)-(5)
 614  002D  3D0A        	sz z
 614  002E  2800     R  	jmp _L101
 614  002F  0700     R  	mov a,_NixieTube_SegmentCode_2[1]
 614  0030  0A07        	sub a,7
 614  0031  3D0A        	sz z
 614  0032  2800     R  	jmp _L102
 615  0033              #line 615 "D:\FJ-Holtek_Project\VSCode\BS66FV350_20200424-C280\USER_PROGRAM\APP.c"
 615  0033  1100     E  	swapa rb
 615  0034  1885        	rl acc
 615  0035  0EE0        	and a,0e0h
 615  0036  0080     E  	mov rb,a
 615  0037  3694        	clr [20].5
 615  0038  2800     R  	jmp _L106
 615  0039              _L96:
 616  0039              #line 616 "D:\FJ-Holtek_Project\VSCode\BS66FV350_20200424-C280\USER_PROGRAM\APP.c"
 616  0039  1B80     E  	rrc rb
 616  003A  1F00     E  	clr rb
 616  003B  1B80     E  	rrc rb
 616  003C  37F0        	clr [112].7
 616  003D  2800     R  	jmp _L107
 616  003E              _L97:
 617  003E              #line 617 "D:\FJ-Holtek_Project\VSCode\BS66FV350_20200424-C280\USER_PROGRAM\APP.c"
 617  003E  1100     E  	swapa rb
 617  003F  1885        	rl acc
 617  0040  0EE0        	and a,0e0h
 617  0041  0080     E  	mov rb,a
 617  0042  36F0        	clr [112].5
 617  0043  2800     R  	jmp _L107
 617  0044              _L98:
 618  0044              #line 618 "D:\FJ-Holtek_Project\VSCode\BS66FV350_20200424-C280\USER_PROGRAM\APP.c"
 618  0044  1F00     E  	clr rc
 618  0045  1080     E  	sz rb
 618  0046  3000     E  	set rc.2
 618  0047  3514        	clr [20].2
 618  0048  0700     E  	mov a,rc
 618  0049  0594        	orm a,[20]
 618  004A  2800     R  	jmp _L103
 618  004B              _L99:
 619  004B              #line 619 "D:\FJ-Holtek_Project\VSCode\BS66FV350_20200424-C280\USER_PROGRAM\APP.c"
 619  004B  0700     E  	mov a,rb
 619  004C  0380     E  	addm a,rb
 619  004D  3494        	clr [20].1
 619  004E  2800     R  	jmp _L106
 619  004F              _L100:
文件：APP.c        编译器版本 HGASM 0202 页次25

 620  004F              #line 620 "D:\FJ-Holtek_Project\VSCode\BS66FV350_20200424-C280\USER_PROGRAM\APP.c"
 620  004F  1B80     E  	rrc rb
 620  0050  1F00     E  	clr rb
 620  0051  1B80     E  	rrc rb
 620  0052  3794        	clr [20].7
 620  0053  2800     R  	jmp _L106
 620  0054              _L101:
 621  0054              #line 621 "D:\FJ-Holtek_Project\VSCode\BS66FV350_20200424-C280\USER_PROGRAM\APP.c"
 621  0054  1100     E  	swapa rb
 621  0055  0EF0        	and a,0f0h 
 621  0056  0080     E  	mov rb,a
 621  0057  3670        	clr [112].4
 621  0058              _L107:
 621  0058  0700     E  	mov a,rb
 621  0059  05F0        	orm a,[112]
 621  005A  2800     R  	jmp _L103
 621  005B              _L102:
 622  005B              #line 622 "D:\FJ-Holtek_Project\VSCode\BS66FV350_20200424-C280\USER_PROGRAM\APP.c"
 622  005B  3414        	clr [20].0
 622  005C              _L106:
 622  005C  0700     E  	mov a,rb
 622  005D  0594        	orm a,[20]
 622  005E              _L103:
 608  005E              #line 608 "D:\FJ-Holtek_Project\VSCode\BS66FV350_20200424-C280\USER_PROGRAM\APP.c"
 608  005E  1480     R  	inc _NixieTube_SegmentCode_2[1]
 608  005F  1780     E  	sdz ra
 608  0060  2800     R  	jmp _L105
 608  0061  0003        	ret
 608  0062              _NixieTube_SegmentCode endp
 608  0062              #line 608 "D:\FJ-Holtek_Project\VSCode\BS66FV350_20200424-C280\USER_PROGRAM\APP.c"
 608  0062              #pragma debug scope 1 1
 608  0062              public _NixieTube_TimeDisplay
 608  0062              #pragma debug scope 14 1
 657  0062              #line 657 "D:\FJ-Holtek_Project\VSCode\BS66FV350_20200424-C280\USER_PROGRAM\APP.c"
 657  0000              _NixieTube_TimeDisplay .section 'code'
 657  0000              _NixieTube_TimeDisplay proc
 657  0000              public _NixieTube_TimeDisplay_2
 657  0000  0008[           local _NixieTube_TimeDisplay_2 db 8 dup(?)	; 3,5
            00
            ]
 657  0008              #pragma debug variable 10 14 _NixieTube_TimeDisplay_2+0 "Time"
 657  0008              #pragma debug variable 8 14 _NixieTube_TimeDisplay_2+2 "secUpdate"
 659  0008              #line 659 "D:\FJ-Holtek_Project\VSCode\BS66FV350_20200424-C280\USER_PROGRAM\APP.c"
 659  0000  0700     R  	mov a,_NixieTube_TimeDisplay_2[0]
 659  0001  0080     E  	mov rb,a
 659  0002  0700     R  	mov a,_NixieTube_TimeDisplay_2[1]
 659  0003  0080     E  	mov rc,a
 659  0004  1F00     E  	clr _builtin_holtek_udivmodhi4_2[6]
 659  0005  0700     E  	mov a,rb  
 659  0006  0080     E  	mov _builtin_holtek_udivmodhi4_2[0],a  
 659  0007  0700     E  	mov a,rc  
 659  0008  0080     E  	mov _builtin_holtek_udivmodhi4_2[1],a
 659  0009  0F3C        	mov a,60  
 659  000A  0080     E  	mov _builtin_holtek_udivmodhi4_2[2],a  
 659  000B  1F00     E  	clr _builtin_holtek_udivmodhi4_2[3]
 659  000C  2000     E  	call _builtin_holtek_udivmodhi4
 659  000D  0700     E  	mov a,_builtin_holtek_udivmodhi4_2[0]  
 659  000E  0080     R  	mov _NixieTube_TimeDisplay_2[4],a  
 659  000F  0700     E  	mov a,_builtin_holtek_udivmodhi4_2[1]  
 659  0010  0080     R  	mov _NixieTube_TimeDisplay_2[5],a
文件：APP.c        编译器版本 HGASM 0202 页次26

 660  0011              #line 660 "D:\FJ-Holtek_Project\VSCode\BS66FV350_20200424-C280\USER_PROGRAM\APP.c"
 660  0011  1F00     E  	clr _builtin_holtek_udivmodhi4_2[6]
 660  0012  0700     E  	mov a,rb  
 660  0013  0080     E  	mov _builtin_holtek_udivmodhi4_2[0],a  
 660  0014  0700     E  	mov a,rc  
 660  0015  0080     E  	mov _builtin_holtek_udivmodhi4_2[1],a
 660  0016  0F3C        	mov a,60  
 660  0017  0080     E  	mov _builtin_holtek_udivmodhi4_2[2],a  
 660  0018  1F00     E  	clr _builtin_holtek_udivmodhi4_2[3]
 660  0019  2000     E  	call _builtin_holtek_udivmodhi4
 660  001A  0700     E  	mov a,_builtin_holtek_udivmodhi4_2[4]  
 660  001B  0080     R  	mov _NixieTube_TimeDisplay_2[6],a  
 660  001C  0700     E  	mov a,_builtin_holtek_udivmodhi4_2[5]  
 660  001D  0080     R  	mov _NixieTube_TimeDisplay_2[7],a
 662  001E              #line 662 "D:\FJ-Holtek_Project\VSCode\BS66FV350_20200424-C280\USER_PROGRAM\APP.c"
 662  001E  0F00        	mov a,0
 662  001F  2000     R  	call _NixieTube_SegmentCode
 663  0020              #line 663 "D:\FJ-Holtek_Project\VSCode\BS66FV350_20200424-C280\USER_PROGRAM\APP.c"
 663  0020  1400     R  	inca ___com_2654[0]
 663  0021  0080     R  	mov _NixieTube_TimeDisplay_2[3],a
 663  0022  0700     R  	mov a,_NixieTube_TimeDisplay_2[3]
 663  0023  0080     R  	mov ___com_2654[0],a
 663  0024  0700     R  	mov a,_NixieTube_TimeDisplay_2[3]
 663  0025  0A01        	sub a,1
 663  0026  3D0A        	sz z
 663  0027  2800     R  	jmp _L110
 663  0028  0A01        	sub a,(2)-(1)
 663  0029  3D0A        	sz z
 663  002A  2800     R  	jmp _L111
 663  002B              #line 663 "D:\FJ-Holtek_Project\VSCode\BS66FV350_20200424-C280\USER_PROGRAM\APP.c"
 663  002B  0700     R  	mov a,_NixieTube_TimeDisplay_2[3]
 663  002C  0A03        	sub a,3
 663  002D  3D0A        	sz z
 663  002E  2800     R  	jmp _L112
 663  002F  0700     R  	mov a,_NixieTube_TimeDisplay_2[3]
 663  0030  0A04        	sub a,4
 663  0031  390A        	snz z
 663  0032  2800     R  	jmp _L117
 667  0033              #line 667 "D:\FJ-Holtek_Project\VSCode\BS66FV350_20200424-C280\USER_PROGRAM\APP.c"
 667  0033  3398        	set [24].7
 667  0034  3594        	clr [20].3
 667  0035  1F00     E  	clr _builtin_holtek_udivmodqi4_2[3]
 667  0036  0700     R  	mov a,_NixieTube_TimeDisplay_2[6]
 667  0037  0080     E  	mov _builtin_holtek_udivmodqi4_2[0],a
 667  0038  0F0A        	mov a,10
 667  0039  0080     E  	mov _builtin_holtek_udivmodqi4_2[1],a
 667  003A  2000     E  	call _builtin_holtek_udivmodqi4
 667  003B  0700     E  	mov a,_builtin_holtek_udivmodqi4_2[2]
 667  003C  0080     E  	mov ra,a
 667  003D  1F00     R  	clr ___com_2654[0]
 667  003E  2800     R  	jmp _L109
 667  003F              _L110:
 664  003F              #line 664 "D:\FJ-Holtek_Project\VSCode\BS66FV350_20200424-C280\USER_PROGRAM\APP.c"
 664  003F  3194        	set [20].3
 664  0040  35F0        	clr [112].3
 664  0041  1F00     E  	clr _builtin_holtek_udivmodqi4_2[3]
 664  0042  0700     R  	mov a,_NixieTube_TimeDisplay_2[4]
 664  0043  0080     E  	mov _builtin_holtek_udivmodqi4_2[0],a
 664  0044  0F0A        	mov a,10
 664  0045  0080     E  	mov _builtin_holtek_udivmodqi4_2[1],a
文件：APP.c        编译器版本 HGASM 0202 页次27

 664  0046  2000     E  	call _builtin_holtek_udivmodqi4
 664  0047  0700     E  	mov a,_builtin_holtek_udivmodqi4_2[0]
 664  0048  0080     E  	mov ra,a
 664  0049  2800     R  	jmp _L109
 664  004A              _L111:
 665  004A              #line 665 "D:\FJ-Holtek_Project\VSCode\BS66FV350_20200424-C280\USER_PROGRAM\APP.c"
 665  004A  31F0        	set [112].3
 665  004B  3770        	clr [112].6
 665  004C  1F00     E  	clr _builtin_holtek_udivmodqi4_2[3]
 665  004D  0700     R  	mov a,_NixieTube_TimeDisplay_2[4]
 665  004E  0080     E  	mov _builtin_holtek_udivmodqi4_2[0],a
 665  004F  0F0A        	mov a,10
 665  0050  0080     E  	mov _builtin_holtek_udivmodqi4_2[1],a
 665  0051  2000     E  	call _builtin_holtek_udivmodqi4
 665  0052  0700     E  	mov a,_builtin_holtek_udivmodqi4_2[2]
 665  0053  0080     E  	mov ra,a
 665  0054  2800     R  	jmp _L109
 665  0055              _L112:
 666  0055              #line 666 "D:\FJ-Holtek_Project\VSCode\BS66FV350_20200424-C280\USER_PROGRAM\APP.c"
 666  0055  3370        	set [112].6
 666  0056  3798        	clr [24].7
 666  0057  1F00     E  	clr _builtin_holtek_udivmodqi4_2[3]
 666  0058  0700     R  	mov a,_NixieTube_TimeDisplay_2[6]
 666  0059  0080     E  	mov _builtin_holtek_udivmodqi4_2[0],a
 666  005A  0F0A        	mov a,10
 666  005B  0080     E  	mov _builtin_holtek_udivmodqi4_2[1],a
 666  005C  2000     E  	call _builtin_holtek_udivmodqi4
 666  005D  0700     E  	mov a,_builtin_holtek_udivmodqi4_2[0]
 666  005E  0080     E  	mov ra,a
 666  005F  2800     R  	jmp _L109
 666  0060              _L117:
 661  0060              #line 661 "D:\FJ-Holtek_Project\VSCode\BS66FV350_20200424-C280\USER_PROGRAM\APP.c"
 661  0060  1F00     E  	clr ra
 661  0061              _L109:
 669  0061              #line 669 "D:\FJ-Holtek_Project\VSCode\BS66FV350_20200424-C280\USER_PROGRAM\APP.c"
 669  0061  0F00     R  	mov a,low offset _DIG_CODE
 669  0062  0300     E  	add a,ra
 669  0063  0083        	mov mp,a
 669  0064  0F00     R  	mov a,high offset _DIG_CODE
 669  0065  1F04        	clr sbp
 669  0066  1384        	adcm a,sbp
 669  0067  2000     E  	call _Crom2Prom
 669  0068  0080     E  	mov ra,a
 670  0069              #line 670 "D:\FJ-Holtek_Project\VSCode\BS66FV350_20200424-C280\USER_PROGRAM\APP.c"
 670  0069  0700     R  	mov a,___com_2654[0]
 670  006A  0A02        	sub a,2
 670  006B  390A        	snz z
 670  006C  2800     R  	jmp _L114
 670  006D  1E00     R  	snz _NixieTube_TimeDisplay_2[2]
 670  006E  2800     R  	jmp _L114
 670  006F  3000     E  	set ra.7
 670  0070              _L114:
 671  0070              #line 671 "D:\FJ-Holtek_Project\VSCode\BS66FV350_20200424-C280\USER_PROGRAM\APP.c"
 671  0070  1700     R  	sdza _sysWork[4]
 671  0071  2800     R  	jmp _L115
 671  0072  3000     E  	set ra.7
 671  0073              _L115:
 672  0073              #line 672 "D:\FJ-Holtek_Project\VSCode\BS66FV350_20200424-C280\USER_PROGRAM\APP.c"
 672  0073  0700     E  	mov a,ra
 672  0074  2000     R  	call _NixieTube_SegmentCode
文件：APP.c        编译器版本 HGASM 0202 页次28

 672  0075  0003        	ret
 672  0076              _NixieTube_TimeDisplay endp
 672  0076              #line 672 "D:\FJ-Holtek_Project\VSCode\BS66FV350_20200424-C280\USER_PROGRAM\APP.c"
 672  0076              #pragma debug scope 1 1
 672  0076              public _NixieTube_TempDisplay
 672  0076              #pragma debug scope 15 1
 678  0076              #line 678 "D:\FJ-Holtek_Project\VSCode\BS66FV350_20200424-C280\USER_PROGRAM\APP.c"
 678  0000              _NixieTube_TempDisplay .section 'code'
 678  0000              _NixieTube_TempDisplay proc
 678  0000              public _NixieTube_TempDisplay_2
 678  0000  0003[           local _NixieTube_TempDisplay_2 db 3 dup(?)	; 2,1
            00
            ]
 678  0003              #pragma debug variable 10 15 _NixieTube_TempDisplay_2+0 "Temp"
 681  0003              #line 681 "D:\FJ-Holtek_Project\VSCode\BS66FV350_20200424-C280\USER_PROGRAM\APP.c"
 681  0000  0F00        	mov a,0
 681  0001  2000     R  	call _NixieTube_SegmentCode
 682  0002              #line 682 "D:\FJ-Holtek_Project\VSCode\BS66FV350_20200424-C280\USER_PROGRAM\APP.c"
 682  0002  1400     R  	inca ___com_2666[0]
 682  0003  0080     R  	mov _NixieTube_TempDisplay_2[2],a
 682  0004  0700     R  	mov a,_NixieTube_TempDisplay_2[2]
 682  0005  0080     R  	mov ___com_2666[0],a
 682  0006  0700     R  	mov a,_NixieTube_TempDisplay_2[2]
 682  0007  0A01        	sub a,1
 682  0008  3D0A        	sz z
 682  0009  2800     R  	jmp _L120
 682  000A  0A01        	sub a,(2)-(1)
 682  000B  3D0A        	sz z
 682  000C  2800     R  	jmp _L121
 682  000D              #line 682 "D:\FJ-Holtek_Project\VSCode\BS66FV350_20200424-C280\USER_PROGRAM\APP.c"
 682  000D  0700     R  	mov a,_NixieTube_TempDisplay_2[2]
 682  000E  0A03        	sub a,3
 682  000F  3D0A        	sz z
 682  0010  2800     R  	jmp _L122
 682  0011  0700     R  	mov a,_NixieTube_TempDisplay_2[2]
 682  0012  0A04        	sub a,4
 682  0013  390A        	snz z
 682  0014  2800     R  	jmp _L125
 686  0015              #line 686 "D:\FJ-Holtek_Project\VSCode\BS66FV350_20200424-C280\USER_PROGRAM\APP.c"
 686  0015  3398        	set [24].7
 686  0016  3594        	clr [20].3
 686  0017  1F00     R  	clr ___com_2666[0]
 686  0018  0F0C        	mov a,12
 686  0019  0080     E  	mov rb,a
 686  001A  2800     R  	jmp _L119
 686  001B              _L120:
 683  001B              #line 683 "D:\FJ-Holtek_Project\VSCode\BS66FV350_20200424-C280\USER_PROGRAM\APP.c"
 683  001B  3194        	set [20].3
 683  001C  35F0        	clr [112].3
 683  001D  1F00     E  	clr _builtin_holtek_udivmodhi4_2[6]
 683  001E  0700     R  	mov a,_NixieTube_TempDisplay_2[0]  
 683  001F  0080     E  	mov _builtin_holtek_udivmodhi4_2[0],a  
 683  0020  0700     R  	mov a,_NixieTube_TempDisplay_2[1]  
 683  0021  0080     E  	mov _builtin_holtek_udivmodhi4_2[1],a
 683  0022  0F64        	mov a,100  
 683  0023  0080     E  	mov _builtin_holtek_udivmodhi4_2[2],a  
 683  0024  1F00     E  	clr _builtin_holtek_udivmodhi4_2[3]
 683  0025  2000     E  	call _builtin_holtek_udivmodhi4
 683  0026  0700     E  	mov a,_builtin_holtek_udivmodhi4_2[0]  
 683  0027  0080     E  	mov rb,a  
文件：APP.c        编译器版本 HGASM 0202 页次29

 683  0028  0700     E  	mov a,_builtin_holtek_udivmodhi4_2[1]  
 683  0029  0080     E  	mov rc,a
 683  002A  2800     R  	jmp _L119
 683  002B              _L121:
 684  002B              #line 684 "D:\FJ-Holtek_Project\VSCode\BS66FV350_20200424-C280\USER_PROGRAM\APP.c"
 684  002B  31F0        	set [112].3
 684  002C  3770        	clr [112].6
 684  002D  1F00     E  	clr _builtin_holtek_udivmodhi4_2[6]
 684  002E  0700     R  	mov a,_NixieTube_TempDisplay_2[0]  
 684  002F  0080     E  	mov _builtin_holtek_udivmodhi4_2[0],a  
 684  0030  0700     R  	mov a,_NixieTube_TempDisplay_2[1]  
 684  0031  0080     E  	mov _builtin_holtek_udivmodhi4_2[1],a
 684  0032  0F0A        	mov a,10  
 684  0033  0080     E  	mov _builtin_holtek_udivmodhi4_2[2],a  
 684  0034  1F00     E  	clr _builtin_holtek_udivmodhi4_2[3]
 684  0035  2000     E  	call _builtin_holtek_udivmodhi4
 684  0036  0700     E  	mov a,_builtin_holtek_udivmodhi4_2[0]  
 684  0037  0080     E  	mov rb,a  
 684  0038  0700     E  	mov a,_builtin_holtek_udivmodhi4_2[1]  
 684  0039  0080     E  	mov rc,a
 684  003A  1F00     E  	clr _builtin_holtek_udivmodhi4_2[6]
 684  003B  0700     E  	mov a,rb  
 684  003C  0080     E  	mov _builtin_holtek_udivmodhi4_2[0],a  
 684  003D  0700     E  	mov a,rc  
 684  003E  0080     E  	mov _builtin_holtek_udivmodhi4_2[1],a
 684  003F  0F0A        	mov a,10  
 684  0040  0080     E  	mov _builtin_holtek_udivmodhi4_2[2],a  
 684  0041  1F00     E  	clr _builtin_holtek_udivmodhi4_2[3]
 684  0042  2000     E  	call _builtin_holtek_udivmodhi4
 684  0043  0700     E  	mov a,_builtin_holtek_udivmodhi4_2[4]  
 684  0044  0080     E  	mov rb,a  
 684  0045  0700     E  	mov a,_builtin_holtek_udivmodhi4_2[5]  
 684  0046  0080     E  	mov rc,a
 684  0047  2800     R  	jmp _L119
 684  0048              _L122:
 685  0048              #line 685 "D:\FJ-Holtek_Project\VSCode\BS66FV350_20200424-C280\USER_PROGRAM\APP.c"
 685  0048  3370        	set [112].6
 685  0049  3798        	clr [24].7
 685  004A  1F00     E  	clr _builtin_holtek_udivmodhi4_2[6]
 685  004B  0700     R  	mov a,_NixieTube_TempDisplay_2[0]  
 685  004C  0080     E  	mov _builtin_holtek_udivmodhi4_2[0],a  
 685  004D  0700     R  	mov a,_NixieTube_TempDisplay_2[1]  
 685  004E  0080     E  	mov _builtin_holtek_udivmodhi4_2[1],a
 685  004F  0F0A        	mov a,10  
 685  0050  0080     E  	mov _builtin_holtek_udivmodhi4_2[2],a  
 685  0051  1F00     E  	clr _builtin_holtek_udivmodhi4_2[3]
 685  0052  2000     E  	call _builtin_holtek_udivmodhi4
 685  0053  0700     E  	mov a,_builtin_holtek_udivmodhi4_2[4]  
 685  0054  0080     E  	mov rb,a  
 685  0055  0700     E  	mov a,_builtin_holtek_udivmodhi4_2[5]  
 685  0056  0080     E  	mov rc,a
 685  0057  2800     R  	jmp _L119
 685  0058              _L125:
 680  0058              #line 680 "D:\FJ-Holtek_Project\VSCode\BS66FV350_20200424-C280\USER_PROGRAM\APP.c"
 680  0058  1F00     E  	clr rb
 680  0059              _L119:
 691  0059              #line 691 "D:\FJ-Holtek_Project\VSCode\BS66FV350_20200424-C280\USER_PROGRAM\APP.c"
 691  0059  0F00     R  	mov a,low offset _DIG_CODE
 691  005A  0300     E  	add a,rb
 691  005B  0083        	mov mp,a
文件：APP.c        编译器版本 HGASM 0202 页次30

 691  005C  0F00     R  	mov a,high offset _DIG_CODE
 691  005D  1F04        	clr sbp
 691  005E  1384        	adcm a,sbp
 691  005F  2000     E  	call _Crom2Prom
 691  0060  2000     R  	call _NixieTube_SegmentCode
 691  0061  0003        	ret
 691  0062              _NixieTube_TempDisplay endp
 691  0062              #line 691 "D:\FJ-Holtek_Project\VSCode\BS66FV350_20200424-C280\USER_PROGRAM\APP.c"
 691  0062              #pragma debug scope 1 1
 691  0062              public _NixieTube_ErrCodeDisplay
 691  0062              #pragma debug scope 16 1
 698  0062              #line 698 "D:\FJ-Holtek_Project\VSCode\BS66FV350_20200424-C280\USER_PROGRAM\APP.c"
 698  0000              _NixieTube_ErrCodeDisplay .section 'code'
 698  0000              _NixieTube_ErrCodeDisplay proc
 698  0000  0002[           local _NixieTube_ErrCodeDisplay_2 db 2 dup(?)	; 0,2
            00
            ]
 698  0000  0080     R  	mov _NixieTube_ErrCodeDisplay_2[0],a
 698  0001              #pragma debug variable 8 16 _NixieTube_ErrCodeDisplay_2+0 "errType"
 702  0001              #line 702 "D:\FJ-Holtek_Project\VSCode\BS66FV350_20200424-C280\USER_PROGRAM\APP.c"
 702  0001  0F00        	mov a,0
 702  0002  2000     R  	call _NixieTube_SegmentCode
 703  0003              #line 703 "D:\FJ-Holtek_Project\VSCode\BS66FV350_20200424-C280\USER_PROGRAM\APP.c"
 703  0003  0700     R  	mov a,_nixTubeDisType[0]
 703  0004  0A02        	sub a,2
 703  0005  390A        	snz z
 703  0006  2800     R  	jmp _L127
 704  0007              #line 704 "D:\FJ-Holtek_Project\VSCode\BS66FV350_20200424-C280\USER_PROGRAM\APP.c"
 704  0007  1400     R  	inca ___com_2676[0]
 704  0008  0080     R  	mov _NixieTube_ErrCodeDisplay_2[1],a
 704  0009  0700     R  	mov a,_NixieTube_ErrCodeDisplay_2[1]
 704  000A  0080     R  	mov ___com_2676[0],a
 704  000B  0700     R  	mov a,_NixieTube_ErrCodeDisplay_2[1]
 704  000C  0A01        	sub a,1
 704  000D  3D0A        	sz z
 704  000E  2800     R  	jmp _L134
 704  000F  0A01        	sub a,(2)-(1)
 704  0010  3D0A        	sz z
 704  0011  2800     R  	jmp _L130
 704  0012  0700     R  	mov a,_NixieTube_ErrCodeDisplay_2[1]
 704  0013  0A03        	sub a,3
 704  0014  390A        	snz z
 704  0015  2800     R  	jmp _L143
 707  0016              #line 707 "D:\FJ-Holtek_Project\VSCode\BS66FV350_20200424-C280\USER_PROGRAM\APP.c"
 707  0016  3370        	set [112].6
 707  0017  3798        	clr [24].7
 707  0018  0F73        	mov a,115
 707  0019  0080     E  	mov ra,a
 707  001A  2800     R  	jmp _L128
 707  001B              _L130:
 706  001B              #line 706 "D:\FJ-Holtek_Project\VSCode\BS66FV350_20200424-C280\USER_PROGRAM\APP.c"
 706  001B  31F0        	set [112].3
 706  001C  3770        	clr [112].6
 706  001D  0F3F        	mov a,63
 706  001E  0080     E  	mov ra,a
 706  001F  2800     R  	jmp _L128
 706  0020              _L127:
 710  0020              #line 710 "D:\FJ-Holtek_Project\VSCode\BS66FV350_20200424-C280\USER_PROGRAM\APP.c"
 710  0020  0700     R  	mov a,_nixTubeDisType[0]
 710  0021  0A03        	sub a,3
文件：APP.c        编译器版本 HGASM 0202 页次31

 710  0022  390A        	snz z
 710  0023  2800     R  	jmp _L126
 711  0024              #line 711 "D:\FJ-Holtek_Project\VSCode\BS66FV350_20200424-C280\USER_PROGRAM\APP.c"
 711  0024  1400     R  	inca ___com_2676[0]
 711  0025  0080     R  	mov _NixieTube_ErrCodeDisplay_2[1],a
 711  0026  0700     R  	mov a,_NixieTube_ErrCodeDisplay_2[1]
 711  0027  0080     R  	mov ___com_2676[0],a
 711  0028  0700     R  	mov a,_NixieTube_ErrCodeDisplay_2[1]
 711  0029  0A01        	sub a,1
 711  002A  3D0A        	sz z
 711  002B  2800     R  	jmp _L134
 711  002C  0A01        	sub a,(2)-(1)
 711  002D  3D0A        	sz z
 711  002E  2800     R  	jmp _L135
 711  002F  0700     R  	mov a,_NixieTube_ErrCodeDisplay_2[1]
 711  0030  0A03        	sub a,3
 711  0031  3D0A        	sz z
 711  0032  2800     R  	jmp _L136
 711  0033              _L143:
 711  0033  0700     R  	mov a,_NixieTube_ErrCodeDisplay_2[1]
 711  0034  0A04        	sub a,4
 711  0035  390A        	snz z
 711  0036  2800     R  	jmp _L141
 715  0037              #line 715 "D:\FJ-Holtek_Project\VSCode\BS66FV350_20200424-C280\USER_PROGRAM\APP.c"
 715  0037  3398        	set [24].7
 715  0038  3194        	set [20].3
 715  0039  1F00     R  	clr ___com_2676[0]
 715  003A  2800     R  	jmp _L141
 715  003B              _L134:
 712  003B              #line 712 "D:\FJ-Holtek_Project\VSCode\BS66FV350_20200424-C280\USER_PROGRAM\APP.c"
 712  003B  3194        	set [20].3
 712  003C  31F0        	set [112].3
 712  003D  2800     R  	jmp _L141
 712  003E              _L135:
 713  003E              #line 713 "D:\FJ-Holtek_Project\VSCode\BS66FV350_20200424-C280\USER_PROGRAM\APP.c"
 713  003E  31F0        	set [112].3
 713  003F  3770        	clr [112].6
 713  0040  0F39        	mov a,57
 713  0041  0080     E  	mov ra,a
 713  0042  2800     R  	jmp _L128
 713  0043              _L136:
 714  0043              #line 714 "D:\FJ-Holtek_Project\VSCode\BS66FV350_20200424-C280\USER_PROGRAM\APP.c"
 714  0043  3370        	set [112].6
 714  0044  3798        	clr [24].7
 714  0045  0F38        	mov a,56
 714  0046  0080     E  	mov ra,a
 714  0047  2800     R  	jmp _L128
 714  0048              _L141:
 700  0048              #line 700 "D:\FJ-Holtek_Project\VSCode\BS66FV350_20200424-C280\USER_PROGRAM\APP.c"
 700  0048  1F00     E  	clr ra
 700  0049              _L128:
 721  0049              #line 721 "D:\FJ-Holtek_Project\VSCode\BS66FV350_20200424-C280\USER_PROGRAM\APP.c"
 721  0049  0700     E  	mov a,ra
 721  004A  2000     R  	call _NixieTube_SegmentCode
 721  004B              _L126:
 721  004B  0003        	ret
 721  004C              _NixieTube_ErrCodeDisplay endp
 721  004C              #line 721 "D:\FJ-Holtek_Project\VSCode\BS66FV350_20200424-C280\USER_PROGRAM\APP.c"
 721  004C              #pragma debug scope 1 1
 721  004C              public _NixieTube_OFF
文件：APP.c        编译器版本 HGASM 0202 页次32

 721  004C              #pragma debug scope 17 1
 725  004C              #line 725 "D:\FJ-Holtek_Project\VSCode\BS66FV350_20200424-C280\USER_PROGRAM\APP.c"
 725  0000              _NixieTube_OFF .section 'code'
 725  0000              _NixieTube_OFF proc
 726  0000              #line 726 "D:\FJ-Holtek_Project\VSCode\BS66FV350_20200424-C280\USER_PROGRAM\APP.c"
 726  0000  31F0        	set [112].3
 726  0001  3370        	set [112].6
 727  0002              #line 727 "D:\FJ-Holtek_Project\VSCode\BS66FV350_20200424-C280\USER_PROGRAM\APP.c"
 727  0002  3398        	set [24].7
 727  0003  3194        	set [20].3
 727  0004  0003        	ret
 727  0005              _NixieTube_OFF endp
 727  0005              #line 727 "D:\FJ-Holtek_Project\VSCode\BS66FV350_20200424-C280\USER_PROGRAM\APP.c"
 727  0005              #pragma debug scope 1 1
 727  0005              ___mp1l equ [3]
 727  0005              ___mp1h equ [4]
 727  0005              ___eea equ [65]
 727  0005              ___eed equ [67]
 727  0005              ___intc0 equ [16]
 727  0005              ___iar1 equ [2]
 727  0005              public _EEPROM_Write
 727  0005              #pragma debug scope 18 1
 767  0005              #line 767 "D:\FJ-Holtek_Project\VSCode\BS66FV350_20200424-C280\USER_PROGRAM\APP.c"
 767  0000              _EEPROM_Write .section 'code'
 767  0000              _EEPROM_Write proc
 767  0000              public _EEPROM_Write_2
 767  0000  0002[           local _EEPROM_Write_2 db 2 dup(?)	; 1,1
            00
            ]
 767  0000  0080     E  	mov ra,a
 767  0001  0080     R  	mov _EEPROM_Write_2[1],a
 767  0002              #pragma debug variable 8 18 _EEPROM_Write_2+1 "addr"
 767  0002              #pragma debug variable 8 18 _EEPROM_Write_2+0 "data"
 769  0002              #line 769 "D:\FJ-Holtek_Project\VSCode\BS66FV350_20200424-C280\USER_PROGRAM\APP.c"
 769  0002  0F40        	mov a,64
 769  0003  0083        	mov [3],a
 770  0004              #line 770 "D:\FJ-Holtek_Project\VSCode\BS66FV350_20200424-C280\USER_PROGRAM\APP.c"
 770  0004  0F01        	mov a,1
 770  0005  0084        	mov [4],a
 773  0006              #line 773 "D:\FJ-Holtek_Project\VSCode\BS66FV350_20200424-C280\USER_PROGRAM\APP.c"
 773  0006  0700     E  	mov a,ra
 773  0007  0E0F        	and a,15
 773  0008  00C1        	mov [65],a
 775  0009              #line 775 "D:\FJ-Holtek_Project\VSCode\BS66FV350_20200424-C280\USER_PROGRAM\APP.c"
 775  0009  0700     R  	mov a,_EEPROM_Write_2[0]
 775  000A  00C3        	mov [67],a
 777  000B              #line 777 "D:\FJ-Holtek_Project\VSCode\BS66FV350_20200424-C280\USER_PROGRAM\APP.c"
 777  000B  3410        	clr [16].0
 780  000C              #line 780 "D:\FJ-Holtek_Project\VSCode\BS66FV350_20200424-C280\USER_PROGRAM\APP.c"
 780  000C  3182        	set [2].3
 781  000D              #line 781 "D:\FJ-Holtek_Project\VSCode\BS66FV350_20200424-C280\USER_PROGRAM\APP.c"
 781  000D  3102        	set [2].2
 783  000E              #line 783 "D:\FJ-Holtek_Project\VSCode\BS66FV350_20200424-C280\USER_PROGRAM\APP.c"
 783  000E  3010        	set [16].0
 783  000F              _L147:
 786  000F              #line 786 "D:\FJ-Holtek_Project\VSCode\BS66FV350_20200424-C280\USER_PROGRAM\APP.c"
 786  000F  3D02        	sz [2].2
 786  0010  2800     R  	jmp _L147
 787  0011              #line 787 "D:\FJ-Holtek_Project\VSCode\BS66FV350_20200424-C280\USER_PROGRAM\APP.c"
 787  0011  1F02        	clr [2]
文件：APP.c        编译器版本 HGASM 0202 页次33

 788  0012              #line 788 "D:\FJ-Holtek_Project\VSCode\BS66FV350_20200424-C280\USER_PROGRAM\APP.c"
 788  0012  1F04        	clr [4]
 788  0013  0003        	ret
 788  0014              _EEPROM_Write endp
 788  0014              #line 788 "D:\FJ-Holtek_Project\VSCode\BS66FV350_20200424-C280\USER_PROGRAM\APP.c"
 788  0014              #pragma debug scope 1 1
 788  0014              public _EEPROM_Read
 788  0014              #pragma debug scope 19 1
 800  0014              #line 800 "D:\FJ-Holtek_Project\VSCode\BS66FV350_20200424-C280\USER_PROGRAM\APP.c"
 800  0000              _EEPROM_Read .section 'code'
 800  0000              _EEPROM_Read proc
 800  0000  00              local _EEPROM_Read_2 db 1 dup(?)	; 0,1
 800  0000  0080     E  	mov ra,a
 800  0001  0080     R  	mov _EEPROM_Read_2[0],a
 800  0002              #pragma debug variable 8 19 _EEPROM_Read_2+0 "addr"
 802  0002              #line 802 "D:\FJ-Holtek_Project\VSCode\BS66FV350_20200424-C280\USER_PROGRAM\APP.c"
 802  0002  0F40        	mov a,64
 802  0003  0083        	mov [3],a
 803  0004              #line 803 "D:\FJ-Holtek_Project\VSCode\BS66FV350_20200424-C280\USER_PROGRAM\APP.c"
 803  0004  0F01        	mov a,1
 803  0005  0084        	mov [4],a
 806  0006              #line 806 "D:\FJ-Holtek_Project\VSCode\BS66FV350_20200424-C280\USER_PROGRAM\APP.c"
 806  0006  0700     E  	mov a,ra
 806  0007  00C1        	mov [65],a
 809  0008              #line 809 "D:\FJ-Holtek_Project\VSCode\BS66FV350_20200424-C280\USER_PROGRAM\APP.c"
 809  0008  3082        	set [2].1
 810  0009              #line 810 "D:\FJ-Holtek_Project\VSCode\BS66FV350_20200424-C280\USER_PROGRAM\APP.c"
 810  0009  3002        	set [2].0
 810  000A              _L150:
 813  000A              #line 813 "D:\FJ-Holtek_Project\VSCode\BS66FV350_20200424-C280\USER_PROGRAM\APP.c"
 813  000A  3C02        	sz [2].0
 813  000B  2800     R  	jmp _L150
 814  000C              #line 814 "D:\FJ-Holtek_Project\VSCode\BS66FV350_20200424-C280\USER_PROGRAM\APP.c"
 814  000C  1F02        	clr [2]
 815  000D              #line 815 "D:\FJ-Holtek_Project\VSCode\BS66FV350_20200424-C280\USER_PROGRAM\APP.c"
 815  000D  1F04        	clr [4]
 817  000E              #line 817 "D:\FJ-Holtek_Project\VSCode\BS66FV350_20200424-C280\USER_PROGRAM\APP.c"
 817  000E  0743        	mov a,[67]
 817  000F  0080     E  	mov ra,a
 818  0010              #line 818 "D:\FJ-Holtek_Project\VSCode\BS66FV350_20200424-C280\USER_PROGRAM\APP.c"
 818  0010  0700     E  	mov a,ra
 818  0011  0003        	ret
 818  0012              _EEPROM_Read endp
 818  0012              #line 818 "D:\FJ-Holtek_Project\VSCode\BS66FV350_20200424-C280\USER_PROGRAM\APP.c"
 818  0012              #pragma debug scope 1 1
 818  0000              @HCCINIT	.section 'data'
 699  0000              #line 699 "D:\FJ-Holtek_Project\VSCode\BS66FV350_20200424-C280\USER_PROGRAM\APP.c"
 699  0000              @HCCINIT___com_2676 .section 'data'
 699  0000              ___com_2676 label byte
 699  0000              #pragma debug variable 8 16 ___com_2676 "com"
 699  0000              	db 0
 699  0000              @ROMDATA_BASE .section inpage 'code'
 699  0000              	db 0
 699  0001              @HCCINIT___com_2676 .section 'data'
 679  0001              #line 679 "D:\FJ-Holtek_Project\VSCode\BS66FV350_20200424-C280\USER_PROGRAM\APP.c"
 679  0000              @HCCINIT___com_2666 .section 'data'
 679  0000              ___com_2666 label byte
 679  0000              #pragma debug variable 8 15 ___com_2666 "com"
 679  0000              	db 0
 679  0001              @ROMDATA_BASE .section inpage 'code'
文件：APP.c        编译器版本 HGASM 0202 页次34

 679  0001              	db 0
 679  0001              @HCCINIT___com_2666 .section 'data'
 658  0001              #line 658 "D:\FJ-Holtek_Project\VSCode\BS66FV350_20200424-C280\USER_PROGRAM\APP.c"
 658  0000              @HCCINIT___com_2654 .section 'data'
 658  0000              ___com_2654 label byte
 658  0000              #pragma debug variable 8 14 ___com_2654 "com"
 658  0000              	db 0
 658  0001              @ROMDATA_BASE .section inpage 'code'
 658  0001              	db 0
 658  0001              @HCCINIT___com_2654 .section 'data'
 478  0001              #line 478 "D:\FJ-Holtek_Project\VSCode\BS66FV350_20200424-C280\USER_PROGRAM\APP.c"
 478  0000              @HCCINIT___com_2620 .section 'data'
 478  0000              ___com_2620 label byte
 478  0000              #pragma debug variable 8 9 ___com_2620 "com"
 478  0000              	db 0
 478  0002              @ROMDATA_BASE .section inpage 'code'
 478  0002              	db 0
 478  0001              @HCCINIT___com_2620 .section 'data'
 343  0001              #line 343 "D:\FJ-Holtek_Project\VSCode\BS66FV350_20200424-C280\USER_PROGRAM\APP.c"
 343  0000              @HCCINIT___buzzTypeOld_2591 .section 'data'
 343  0000              ___buzzTypeOld_2591 label byte
 343  0000              #pragma debug variable 8 7 ___buzzTypeOld_2591 "buzzTypeOld"
 343  0000              	db 0
 343  0002              @ROMDATA_BASE .section inpage 'code'
 343  0002              	db 0
 343  0001              @HCCINIT___buzzTypeOld_2591 .section 'data'
 343  0000              @HCCINIT0___preheatStopTime_2579 .section 'data'
 343  0000  0002[       ___preheatStopTime_2579	db 2 dup(0)
            00
            ]
 343  0002              #pragma debug variable 10 4 ___preheatStopTime_2579 "preheatStopTime"
 343  0002              
 343  0000              @HCCINIT .section 'data'
 186  0000              #line 186 "D:\FJ-Holtek_Project\VSCode\BS66FV350_20200424-C280\USER_PROGRAM\APP.c"
 186  0000              @HCCINIT___heatState_2576 .section 'data'
 186  0000              ___heatState_2576 label byte
 186  0000              #pragma debug variable 8 4 ___heatState_2576 "heatState"
 186  0000              	db 0
 186  0003              @ROMDATA_BASE .section inpage 'code'
 186  0003              	db 0
 186  0001              @HCCINIT___heatState_2576 .section 'data'
 186  0001              public _DIG_CODE
 186  0000              @crom	.section 'crom'
 601  0000              #line 601 "D:\FJ-Holtek_Project\VSCode\BS66FV350_20200424-C280\USER_PROGRAM\APP.c"
 601  0000              @crom	.section	'crom'
 601  0000              _DIG_CODE:
 601  0000              #pragma debug array 42 8 16 1
 601  0000              #pragma debug array 42 8 16 1
 601  0000              #pragma debug variable 42 1 _DIG_CODE "DIG_CODE"
 601  0000              	db 63
 601  0001              	db 6
 601  0001              	db 91
 601  0002              	db 79
 601  0002              	db 102
 601  0003              	db 109
 601  0003              	db 125
 601  0004              	db 7
 601  0004              	db 127
 601  0005              	db 111
 601  0005              	db 119
文件：APP.c        编译器版本 HGASM 0202 页次35

 601  0006              	db 124
 601  0006              	db 57
 601  0007              	db 94
 601  0007              	db 121
 601  0008              	db 113
 597  0008              #line 597 "D:\FJ-Holtek_Project\VSCode\BS66FV350_20200424-C280\USER_PROGRAM\APP.c"
 597  0008              public _nixTubeDisType
 597  0000              @HCCINIT0_nixTubeDisType .section 'data'
 597  0000              _nixTubeDisType	db 0
 597  0001              #pragma debug variable 8 1 _nixTubeDisType "nixTubeDisType"
 597  0001              
 597  0000              @HCCINIT .section 'data'
 505  0000              #line 505 "D:\FJ-Holtek_Project\VSCode\BS66FV350_20200424-C280\USER_PROGRAM\APP.c"
 505  0000              public _tksFun
 505  0000              @HCCINIT0_tksFun .section 'data'
 505  0000  0004[       _tksFun	db 4 dup(0)
            00
            ]
 505  0004              #pragma debug struct_end
 505  0004              #pragma debug struct_end
 505  0004              #pragma debug variable 43 1 _tksFun "tksFun"
 505  0004              
 505  0000              @HCCINIT .section 'data'
 505  0000              @HCCINIT	.section 'data'
 308  0000              #line 308 "D:\FJ-Holtek_Project\VSCode\BS66FV350_20200424-C280\USER_PROGRAM\APP.c"
 308  0000              @HCCINIT_periodOld .section 'data'
 308  0000              _periodOld label byte
 308  0000              #pragma debug variable 10 1 _periodOld "periodOld"
 308  0000              	dw -1
 308  0003              @ROMDATA_BASE .section inpage 'code'
 308  0003  FFFF        	dc -1
 308  0002              @HCCINIT_periodOld .section 'data'
 307  0002              #line 307 "D:\FJ-Holtek_Project\VSCode\BS66FV350_20200424-C280\USER_PROGRAM\APP.c"
 307  0002              public _buzzType
 307  0000              @HCCINIT0_buzzType .section 'data'
 307  0000              _buzzType	db 0
 307  0001              #pragma debug variable 8 1 _buzzType "buzzType"
 307  0001              
 307  0000              @HCCINIT .section 'data'
 306  0000              #line 306 "D:\FJ-Holtek_Project\VSCode\BS66FV350_20200424-C280\USER_PROGRAM\APP.c"
 306  0000              public _buzzONTime
 306  0000              @HCCINIT0_buzzONTime .section 'data'
 306  0000  0002[       _buzzONTime	db 2 dup(0)
            00
            ]
 306  0002              #pragma debug variable 10 1 _buzzONTime "buzzONTime"
 306  0002              
 306  0000              @HCCINIT .section 'data'
 132  0000              #line 132 "D:\FJ-Holtek_Project\VSCode\BS66FV350_20200424-C280\USER_PROGRAM\APP.c"
 132  0000              @HCCINIT_adcValueErrorCnt .section 'data'
 132  0000              _adcValueErrorCnt label byte
 132  0000              #pragma debug variable 8 1 _adcValueErrorCnt "adcValueErrorCnt"
 132  0000              	db 0
 132  0004              @ROMDATA_BASE .section inpage 'code'
 132  0004              	db 0
 132  0001              @HCCINIT_adcValueErrorCnt .section 'data'
 131  0001              #line 131 "D:\FJ-Holtek_Project\VSCode\BS66FV350_20200424-C280\USER_PROGRAM\APP.c"
 131  0000              @HCCINIT_adcValueSum .section 'data'
 131  0000              _adcValueSum label byte
 131  0000              #pragma debug variable 10 1 _adcValueSum "adcValueSum"
文件：APP.c        编译器版本 HGASM 0202 页次36

 131  0000              	db 0
 131  0005              @ROMDATA_BASE .section inpage 'code'
 131  0005              	db 0
 131  0001              @HCCINIT_adcValueSum .section 'data'
 131  0001              	db 0
 131  0005              @ROMDATA_BASE .section inpage 'code'
 131  0005              	db 0
 131  0002              @HCCINIT_adcValueSum .section 'data'
 130  0002              #line 130 "D:\FJ-Holtek_Project\VSCode\BS66FV350_20200424-C280\USER_PROGRAM\APP.c"
 130  0000              @HCCINIT_adcSumCnt .section 'data'
 130  0000              _adcSumCnt label byte
 130  0000              #pragma debug variable 8 1 _adcSumCnt "adcSumCnt"
 130  0000              	db 0
 130  0006              @ROMDATA_BASE .section inpage 'code'
 130  0006              	db 0
 130  0001              @HCCINIT_adcSumCnt .section 'data'
 130  0001              public _ntcAdcVaule
 104  0001              #line 104 "D:\FJ-Holtek_Project\VSCode\BS66FV350_20200424-C280\USER_PROGRAM\APP.c"
 104  0000              @HCCINIT_ntcAdcVaule .section 'data'
 104  0000              _ntcAdcVaule label byte
 104  0000              #pragma debug variable 10 1 _ntcAdcVaule "ntcAdcVaule"
 104  0000              	db 0
 104  0006              @ROMDATA_BASE .section inpage 'code'
 104  0006              	db 0
 104  0001              @HCCINIT_ntcAdcVaule .section 'data'
 104  0001              	db 0
 104  0007              @ROMDATA_BASE .section inpage 'code'
 104  0007              	db 0
 104  0002              @HCCINIT_ntcAdcVaule .section 'data'
 103  0002              #line 103 "D:\FJ-Holtek_Project\VSCode\BS66FV350_20200424-C280\USER_PROGRAM\APP.c"
 103  0002              public _adcConverterValueOld
 103  0000              @HCCINIT0_adcConverterValueOld .section 'data'
 103  0000  0002[       _adcConverterValueOld	db 2 dup(0)
            00
            ]
 103  0002              #pragma debug variable 10 1 _adcConverterValueOld "adcConverterValueOld"
 103  0002              
 103  0000              @HCCINIT .section 'data'
 103  0000              #line 103 "D:\FJ-Holtek_Project\VSCode\BS66FV350_20200424-C280\USER_PROGRAM\APP.c"
 103  0000              public _adcConverterValue
 103  0000              @HCCINIT0_adcConverterValue .section 'data'
 103  0000  0002[       _adcConverterValue	db 2 dup(0)
            00
            ]
 103  0002              #pragma debug variable 10 1 _adcConverterValue "adcConverterValue"
 103  0002              
 103  0000              @HCCINIT .section 'data'
  62  0000              #line 62 "D:\FJ-Holtek_Project\VSCode\BS66FV350_20200424-C280\USER_PROGRAM\APP.c"
  62  0000              public _relayType
  62  0000              @HCCINIT0_relayType .section 'data'
  62  0000  0003[       _relayType	db 3 dup(0)
            00
            ]
  62  0003              #pragma debug struct_end
  62  0003              #pragma debug struct_end
  62  0003              #pragma debug variable 44 1 _relayType "relayType"
  62  0003              
  62  0000              @HCCINIT .section 'data'
  62  0000              public _ntcTempArr
  62  0008              @crom	.section 'crom'
文件：APP.c        编译器版本 HGASM 0202 页次37

  55  0008              #line 55 "D:\FJ-Holtek_Project\VSCode\BS66FV350_20200424-C280\USER_PROGRAM\APP.c"
  55  0008              @crom	.section	'crom'
  55  0008              _ntcTempArr:
  55  0008              #pragma debug array 45 12 9 1
  55  0008              #pragma debug array 45 12 9 1
  55  0008              #pragma debug variable 45 1 _ntcTempArr "ntcTempArr"
  55  0008  1DFF        	dc 7679
  55  0009  1609        	dc 5641
  55  000A  10F4        	dc 4340
  55  000B  0CD7        	dc 3287
  55  000C  09D7        	dc 2519
  55  000D  0783        	dc 1923
  55  000E  05E7        	dc 1511
  55  000F  04C2        	dc 1218
  55  0010  03D9        	dc 985
  43  0011              #line 43 "D:\FJ-Holtek_Project\VSCode\BS66FV350_20200424-C280\USER_PROGRAM\APP.c"
  43  0011              public _stopDownCount
  43  0000              @HCCINIT0_stopDownCount .section 'data'
  43  0000  0002[       _stopDownCount	db 2 dup(0)
            00
            ]
  43  0002              #pragma debug variable 10 1 _stopDownCount "stopDownCount"
  43  0002              
  43  0000              @HCCINIT .section 'data'
  42  0000              #line 42 "D:\FJ-Holtek_Project\VSCode\BS66FV350_20200424-C280\USER_PROGRAM\APP.c"
  42  0000              public _interDistime
  42  0000              @HCCINIT0_interDistime .section 'data'
  42  0000              _interDistime	db 0
  42  0001              #pragma debug variable 8 1 _interDistime "interDistime"
  42  0001              
  42  0000              @HCCINIT .section 'data'
  41  0000              #line 41 "D:\FJ-Holtek_Project\VSCode\BS66FV350_20200424-C280\USER_PROGRAM\APP.c"
  41  0000              public _sysWork
  41  0000              @HCCINIT0_sysWork .section 'data'
  41  0000  0006[       _sysWork	db 6 dup(0)
            00
            ]
  41  0006              #pragma debug struct_end
  41  0006              #pragma debug struct_end
  41  0006              #pragma debug variable 46 1 _sysWork "sysWork"
  41  0006              
  41  0000              @HCCINIT .section 'data'
  40  0000              #line 40 "D:\FJ-Holtek_Project\VSCode\BS66FV350_20200424-C280\USER_PROGRAM\APP.c"
  40  0000              public _ledUnion
  40  0000              @HCCINIT0_ledUnion .section 'data'
  40  0000  0002[       _ledUnion	db 2 dup(0)
            00
            ]
  40  0002              #pragma debug struct_end
  40  0002              #pragma debug struct_end
  40  0002              #pragma debug union_end
  40  0002              #pragma debug union_end
  40  0002              #pragma debug variable 48 1 _ledUnion "ledUnion"
  40  0002              
  40  0000              @HCCINIT .section 'data'
  40  0000              #pragma debug variable 8 1 ___mp1l "__mp1l" 1
  40  0000              #pragma debug variable 8 1 ___mp1h "__mp1h" 1
  40  0000              #pragma debug struct_end
  40  0000              #pragma debug struct_end
  40  0000              #pragma debug union_end
文件：APP.c        编译器版本 HGASM 0202 页次38

  40  0000              #pragma debug union_end
  40  0000              #pragma debug variable 50 1 ___intc0 "__intc0" 1
  40  0000              #pragma debug struct_end
  40  0000              #pragma debug struct_end
  40  0000              #pragma debug union_end
  40  0000              #pragma debug union_end
  40  0000              #pragma debug variable 52 1 ___pa "__pa" 1
  40  0000              #pragma debug struct_end
  40  0000              #pragma debug struct_end
  40  0000              #pragma debug union_end
  40  0000              #pragma debug union_end
  40  0000              #pragma debug variable 54 1 ___pb "__pb" 1
  40  0000              #pragma debug struct_end
  40  0000              #pragma debug struct_end
  40  0000              #pragma debug union_end
  40  0000              #pragma debug union_end
  40  0000              #pragma debug variable 56 1 ___pd "__pd" 1
  40  0000              #pragma debug variable 8 1 ___adrl "__adrl" 1
  40  0000              #pragma debug variable 8 1 ___adrh "__adrh" 1
  40  0000              #pragma debug struct_end
  40  0000              #pragma debug struct_end
  40  0000              #pragma debug union_end
  40  0000              #pragma debug union_end
  40  0000              #pragma debug variable 58 1 ___adcr0 "__adcr0" 1
  40  0000              #pragma debug struct_end
  40  0000              #pragma debug struct_end
  40  0000              #pragma debug union_end
  40  0000              #pragma debug union_end
  40  0000              #pragma debug variable 60 1 ___eea "__eea" 1
  40  0000              #pragma debug variable 8 1 ___eed "__eed" 1
  40  0000              #pragma debug variable 8 1 ___ptmal "__ptmal" 1
  40  0000              #pragma debug variable 8 1 ___ptmah "__ptmah" 1
  40  0000              #pragma debug struct_end
  40  0000              #pragma debug struct_end
  40  0000              #pragma debug union_end
  40  0000              #pragma debug union_end
  40  0000              #pragma debug variable 62 1 ___ptmrpl "__ptmrpl" 1
  40  0000              #pragma debug struct_end
  40  0000              #pragma debug struct_end
  40  0000              #pragma debug union_end
  40  0000              #pragma debug union_end
  40  0000              #pragma debug variable 64 1 ___ptmrph "__ptmrph" 1
  40  0000              #pragma debug struct_end
  40  0000              #pragma debug struct_end
  40  0000              #pragma debug union_end
  40  0000              #pragma debug union_end
  40  0000              #pragma debug variable 66 1 ___pe "__pe" 1
  40  0000              #pragma debug variable 8 1 ___iar1 "__iar1" 1
  40  0000              extern _builtin_holtek_udivmodhi4_2:byte
  40  0000              extern _builtin_holtek_udivmodhi4:near
  40  0000              extern _builtin_holtek_divmodsi4:near
  40  0000              extern _builtin_holtek_udivmodsi4_2:byte
  40  0000              extern _builtin_holtek_udivmodsi4:near
  40  0000              extern _builtin_holtek_mulhi3_2:byte
  40  0000              extern _builtin_holtek_mulhi3:near
  40  0000              extern _builtin_holtek_udivmodqi4_2:byte
  40  0000              extern _builtin_holtek_udivmodqi4:near
  40  0000              
  40  0000              ; 
  40  0000              ; Generated by holtek-gcc v3.19, Wed May 06 10:21:19 2020
文件：APP.c        编译器版本 HGASM 0202 页次39

  40  0000              ; Rebuild 718
  40  0000              ; end of file


        0 Errors, 0