文件：USER_PROGRAM.C 编译器版本 HGASM 0202 页次1


   1  0000              ; Generated by holtek-gcc v3.19, Wed May 06 10:21:18 2020
   2  0000              ; 
   3  0000              ; Configuration:
   4  0000              ;       with long instruction
   5  0000              ;       Single ROM, Multi-RAM
   6  0000              ;       bits_per_rom_unit:16
   7  0000              ;       with mp1
   8  0000              ;       with tbhp, address(0x9)
   9  0000              ;          Use tabrd-const
  10  0000              ;       
  11  0000              ; SFR address of long-instruction arch:
  12  0000              ;    mp0 = -1,1,0
  13  0000              ;    mp1 = 4,3,2
  14  0000              ;    mp2 = 14,13,12
  15  0000              ;    tbp = 9,7,8
  16  0000              ;    acc = 5
  17  0000              ;    pcl = 6
  18  0000              ;    status = 10
  19  0000              ;    bp = 11
  20  0000              ;    intc = 16
  21  0000              ;       
  22  0000              ;       
  23  0000              ; use 'tabrdc' instead of 'tabrd'
  24  0000              ;       
  25  0000              
  26  0000              #pragma translator "holtek-gcc 4.6.4" "3.19" "build 20130711"
  27  0000              ; Rebuild 718
  28  0000              
  29  0000              ir equ [2]
  30  0000              mp equ [3]
  31  0000              sbp equ [4]
  32  0000              acc equ [5]
  33  0000              bp equ [11]
  34  0000              tblp equ [7]
  35  0000              tbhp equ [9]
  36  0000              status equ [10]
  37  0000              c equ [10].0
  38  0000              ac equ [10].1
  39  0000              z equ [10].2
  40  0000              ov equ [10].3
  41  0000              cz equ [10].6
  42  0000              sc equ [10].7
  43  0000              intc equ [16]
  44  0000              
  45  0000              extern ra:byte
  46  0000              extern rb:byte
  47  0000              extern rc:byte
  48  0000              extern rd:byte
  49  0000              extern re:byte
  50  0000              extern rf:byte
  51  0000              extern rg:byte
  52  0000              extern rh:byte
  53  0000              extern _Crom2Prom:near
  54  0000              extern _Crom2PromNext:near
  55  0000              
  56  0000              RAMBANK 0 @BITDATASEC, @BITDATASEC1
  57  0000              @HCCINIT	.section 'data'
  58  0000              @HCCINIT0	.section 'data'
  59  0000              @BITDATASEC	 .section 'data'
文件：USER_PROGRAM.ASM 编译器版本 HGASM 0202 页次2

  60  0000              @BITDATASEC1	 .section 'data'
  61  0000              
  62  0000              #pragma debug scope 1 1
  63  0000              	extern __DELAY3:near
  64  0000              	extern __DELAYX3:near
  65  0000              	extern __DELAYX6:near
  66  0000              	extern __DELAYY5:near
  67  0000              	extern __DELAYY3:near
  68  0000              	extern _builtin_holtek_delay_2:byte
  69  0000              public _Interrupt_Extemal
  70  0000              #pragma debug scope 2 1

  69  0000              #line 69 "D:\FJ-Holtek_Project\VSCode\BS66FV350_20200424-C280\USER_PROGRAM\USER_PROGRAM.C"
  69  0000              @Interrupt_Extemal_code .section at 4 'code'
  69  0000              ifdef INTERRUPT_DELAY
  69  0000              	nop
  69  0000              endif
  69  0000  0080     E  	mov r1,a
  69  0001  070A        	mov a,status
  69  0002              ifndef INTERRUPT_DELAY
  69  0002  0080     E  	mov r2,a
  69  0003              endif
  69  0003  2800     R  	jmp _Interrupt_Extemal
  69  0004              #pragma debug scope 1 1
  69  0004              @dummy4 endp
  69  0004              #pragma debug scope 3 1
  69  0000              _Interrupt_Extemal .section 'code'
  69  0000              _Interrupt_Extemal proc
  69  0000              ifdef INTERRUPT_DELAY
  69  0000              	mov r2,a
  69  0000              endif
  70  0000              #line 70 "D:\FJ-Holtek_Project\VSCode\BS66FV350_20200424-C280\USER_PROGRAM\USER_PROGRAM.C"
  70  0000              ;# 70 "D:\FJ-Holtek_Project\VSCode\BS66FV350_20200424-C280\USER_PROGRAM\USER_PROGRAM.C" 1
  70  0000  0000        	nop
  70  0001  0700     E  	mov a,r2
  70  0002  008A        	mov status,a
  70  0003  0700     E  	mov a,r1
  70  0004  0004        	reti
  70  0005              _Interrupt_Extemal endp
  70  0005              
  70  0005              #line 70 "D:\FJ-Holtek_Project\VSCode\BS66FV350_20200424-C280\USER_PROGRAM\USER_PROGRAM.C"
  70  0005              #pragma debug scope 1 1
  70  0005              ___intc2 equ [18]
  70  0005              public _TimeBase1_ISR
  70  0005              #pragma debug scope 4 1
 185  0005              #line 185 "D:\FJ-Holtek_Project\VSCode\BS66FV350_20200424-C280\USER_PROGRAM\USER_PROGRAM.C"
 185  0000              @TimeBase1_ISR_code .section at 40 'code'
 185  0000              ifdef INTERRUPT_DELAY
 185  0000              	nop
 185  0000              endif
 185  0000  0080     E  	mov r1,a
 185  0001  070A        	mov a,status
 185  0002              ifndef INTERRUPT_DELAY
 185  0002  0080     E  	mov r2,a
 185  0003              endif
 185  0003  2800     R  	jmp _TimeBase1_ISR
 185  0004              #pragma debug scope 1 1
 185  0004              @dummy40 endp
 185  0004              #pragma debug scope 5 1
 185  0000              _TimeBase1_ISR .section 'code'
文件：USER_PROGRAM.C 编译器版本 HGASM 0202 页次3

 185  0000              _TimeBase1_ISR proc
 185  0000  00          local _TimeBase1_ISR_2 db 1 dup(?)
 185  0000              ifdef INTERRUPT_DELAY
 185  0000              	mov r2,a
 185  0000              endif
 185  0000  0703        	mov a,mp
 185  0001  0080     E  	mov r3,a
 185  0002  0704        	mov a,sbp
 185  0003  0080     E  	mov r4,a
 185  0004  0707        	mov a,tblp
 185  0005  0080     E  	mov r5,a
 185  0006  0709        	mov a,tbhp
 185  0007  0080     E  	mov r6,a
 186  0008              #line 186 "D:\FJ-Holtek_Project\VSCode\BS66FV350_20200424-C280\USER_PROGRAM\USER_PROGRAM.C"
 186  0008  0700     E  	mov a,_ledUnion[0]
 186  0009  0080     E  	mov _LED_Control_2[0],a
 186  000A  0700     E  	mov a,_ledUnion[1]
 186  000B  0080     E  	mov _LED_Control_2[1],a
 186  000C  2000     E  	call _LED_Control
 188  000D              #line 188 "D:\FJ-Holtek_Project\VSCode\BS66FV350_20200424-C280\USER_PROGRAM\USER_PROGRAM.C"
 188  000D  1E00     E  	snz _sysWork[4]
 188  000E  2800     R  	jmp _L3
 189  000F              #line 189 "D:\FJ-Holtek_Project\VSCode\BS66FV350_20200424-C280\USER_PROGRAM\USER_PROGRAM.C"
 189  000F  0700     E  	mov a,_nixTubeDisType[0]
 189  0010  0080     R  	mov _TimeBase1_ISR_2[0],a
 189  0011  1E00     R  	snz _TimeBase1_ISR_2[0]
 189  0012  2800     R  	jmp _L5
 189  0013  1700     R  	sdza _TimeBase1_ISR_2[0]
 189  0014  2800     R  	jmp _L10
 194  0015              #line 194 "D:\FJ-Holtek_Project\VSCode\BS66FV350_20200424-C280\USER_PROGRAM\USER_PROGRAM.C"
 194  0015  1F00     E  	clr ra
 194  0016  3C00     R  	sz _secUpdate
 194  0017  3000     E  	set ra.0
 194  0018  0700     E  	mov a,_sysWork[0]
 194  0019  0080     E  	mov _NixieTube_TimeDisplay_2[0],a
 194  001A  0700     E  	mov a,_sysWork[1]
 194  001B  0080     E  	mov _NixieTube_TimeDisplay_2[1],a
 194  001C  0F01        	mov a,1
 194  001D  0680     E  	andm a,ra
 194  001E  0700     E  	mov a,ra
 194  001F  0080     E  	mov _NixieTube_TimeDisplay_2[2],a
 194  0020  2000     E  	call _NixieTube_TimeDisplay
 195  0021              #line 195 "D:\FJ-Holtek_Project\VSCode\BS66FV350_20200424-C280\USER_PROGRAM\USER_PROGRAM.C"
 195  0021  2800     R  	jmp _L3
 195  0022              _L5:
 191  0022              #line 191 "D:\FJ-Holtek_Project\VSCode\BS66FV350_20200424-C280\USER_PROGRAM\USER_PROGRAM.C"
 191  0022  0700     E  	mov a,_sysWork[2]
 191  0023  0080     E  	mov _NixieTube_TempDisplay_2[0],a
 191  0024  0700     E  	mov a,_sysWork[3]
 191  0025  0080     E  	mov _NixieTube_TempDisplay_2[1],a
 191  0026  2000     E  	call _NixieTube_TempDisplay
 192  0027              #line 192 "D:\FJ-Holtek_Project\VSCode\BS66FV350_20200424-C280\USER_PROGRAM\USER_PROGRAM.C"
 192  0027  2800     R  	jmp _L3
 192  0028              _L10:
 197  0028              #line 197 "D:\FJ-Holtek_Project\VSCode\BS66FV350_20200424-C280\USER_PROGRAM\USER_PROGRAM.C"
 197  0028  0700     E  	mov a,_nixTubeDisType[0]
 197  0029  0080     E  	mov ra,a
 197  002A  0700     E  	mov a,ra
 197  002B  2000     E  	call _NixieTube_ErrCodeDisplay
 197  002C              _L3:
文件：USER_PROGRAM.C 编译器版本 HGASM 0202 页次4

 201  002C              #line 201 "D:\FJ-Holtek_Project\VSCode\BS66FV350_20200424-C280\USER_PROGRAM\USER_PROGRAM.C"
 201  002C  3712        	clr [18].6
 201  002D  0700     E  	mov a,r2
 201  002E  008A        	mov status,a
 201  002F  0700     E  	mov a,r3
 201  0030  0083        	mov mp,a
 201  0031  0700     E  	mov a,r4
 201  0032  0084        	mov sbp,a
 201  0033  0700     E  	mov a,r5
 201  0034  0087        	mov tblp,a
 201  0035  0700     E  	mov a,r6
 201  0036  0089        	mov tbhp,a
 201  0037  1D05        	tabrdc acc
 201  0038  0700     E  	mov a,r1
 201  0039  0004        	reti
 201  003A              _TimeBase1_ISR endp
 201  003A              
 201  003A              #line 201 "D:\FJ-Holtek_Project\VSCode\BS66FV350_20200424-C280\USER_PROGRAM\USER_PROGRAM.C"
 201  003A              #pragma debug scope 1 1
 201  003A              ___intc0 equ [16]
 201  003A              ___lvdc equ [32]
 201  003A              ___pac equ [21]
 201  003A              ___pbc equ [25]
 201  003A              ___pcc equ [37]
 201  003A              ___pdc equ [40]
 201  003A              ___pec equ [113]
 201  003A              ___pa equ [20]
 201  003A              ___pb equ [24]
 201  003A              ___pc equ [36]
 201  003A              ___pd equ [39]
 201  003A              ___pe equ [112]
 201  003A              ___ptmc0 equ [72]
 201  003A              ___ptmc1 equ [73]
 201  003A              ___ptmrpl equ [78]
 201  003A              ___ptmrph equ [79]
 201  003A              ___ptmal equ [76]
 201  003A              ___ptmah equ [77]
 201  003A              ___pbs0 equ [327]
 201  003A              ___adcr0 equ [48]
 201  003A              ___adcr1 equ [49]
 201  003A              ___stmc0 equ [93]
 201  003A              ___stmc1 equ [94]
 201  003A              ___stmal equ [97]
 201  003A              ___stmah equ [98]
 201  003A              ___mfi1 equ [43]
 201  003A              ___intc1 equ [17]
 201  003A              ___pscr1 equ [68]
 201  003A              ___tb1c equ [52]
 201  003A              ___sledc equ [70]
 201  003A              public _SystemInit
 201  003A              #pragma debug scope 6 1
 210  003A              #line 210 "D:\FJ-Holtek_Project\VSCode\BS66FV350_20200424-C280\USER_PROGRAM\USER_PROGRAM.C"
 210  0000              _SystemInit .section 'code'
 210  0000              _SystemInit proc
 215  0000              #line 215 "D:\FJ-Holtek_Project\VSCode\BS66FV350_20200424-C280\USER_PROGRAM\USER_PROGRAM.C"
 215  0000  3410        	clr [16].0
 217  0001              #line 217 "D:\FJ-Holtek_Project\VSCode\BS66FV350_20200424-C280\USER_PROGRAM\USER_PROGRAM.C"
 217  0001  3220        	set [32].4
 218  0002              #line 218 "D:\FJ-Holtek_Project\VSCode\BS66FV350_20200424-C280\USER_PROGRAM\USER_PROGRAM.C"
 218  0002  3120        	set [32].2
文件：USER_PROGRAM.C 编译器版本 HGASM 0202 页次5

 219  0003              #line 219 "D:\FJ-Holtek_Project\VSCode\BS66FV350_20200424-C280\USER_PROGRAM\USER_PROGRAM.C"
 219  0003  36A0        	clr [32].5
 221  0004              #line 221 "D:\FJ-Holtek_Project\VSCode\BS66FV350_20200424-C280\USER_PROGRAM\USER_PROGRAM.C"
 221  0004  1F15        	clr [21]
 222  0005              #line 222 "D:\FJ-Holtek_Project\VSCode\BS66FV350_20200424-C280\USER_PROGRAM\USER_PROGRAM.C"
 222  0005  1F19        	clr [25]
 223  0006              #line 223 "D:\FJ-Holtek_Project\VSCode\BS66FV350_20200424-C280\USER_PROGRAM\USER_PROGRAM.C"
 223  0006  1F25        	clr [37]
 224  0007              #line 224 "D:\FJ-Holtek_Project\VSCode\BS66FV350_20200424-C280\USER_PROGRAM\USER_PROGRAM.C"
 224  0007  1F28        	clr [40]
 225  0008              #line 225 "D:\FJ-Holtek_Project\VSCode\BS66FV350_20200424-C280\USER_PROGRAM\USER_PROGRAM.C"
 225  0008  1F71        	clr [113]
 227  0009              #line 227 "D:\FJ-Holtek_Project\VSCode\BS66FV350_20200424-C280\USER_PROGRAM\USER_PROGRAM.C"
 227  0009  1F94        	set [20]
 228  000A              #line 228 "D:\FJ-Holtek_Project\VSCode\BS66FV350_20200424-C280\USER_PROGRAM\USER_PROGRAM.C"
 228  000A  1F98        	set [24]
 229  000B              #line 229 "D:\FJ-Holtek_Project\VSCode\BS66FV350_20200424-C280\USER_PROGRAM\USER_PROGRAM.C"
 229  000B  1FA4        	set [36]
 230  000C              #line 230 "D:\FJ-Holtek_Project\VSCode\BS66FV350_20200424-C280\USER_PROGRAM\USER_PROGRAM.C"
 230  000C  1FA7        	set [39]
 231  000D              #line 231 "D:\FJ-Holtek_Project\VSCode\BS66FV350_20200424-C280\USER_PROGRAM\USER_PROGRAM.C"
 231  000D  1FF0        	set [112]
 247  000E              #line 247 "D:\FJ-Holtek_Project\VSCode\BS66FV350_20200424-C280\USER_PROGRAM\USER_PROGRAM.C"
 247  000E  0F38        	mov a,56
 247  000F  00C8        	mov [72],a
 248  0010              #line 248 "D:\FJ-Holtek_Project\VSCode\BS66FV350_20200424-C280\USER_PROGRAM\USER_PROGRAM.C"
 248  0010  0FA8        	mov a,168
 248  0011  00C9        	mov [73],a
 249  0012              #line 249 "D:\FJ-Holtek_Project\VSCode\BS66FV350_20200424-C280\USER_PROGRAM\USER_PROGRAM.C"
 249  0012  0F1F        	mov a,31
 249  0013  00CE        	mov [78],a
 250  0014              #line 250 "D:\FJ-Holtek_Project\VSCode\BS66FV350_20200424-C280\USER_PROGRAM\USER_PROGRAM.C"
 250  0014  1F4F        	clr [79]
 252  0015              #line 252 "D:\FJ-Holtek_Project\VSCode\BS66FV350_20200424-C280\USER_PROGRAM\USER_PROGRAM.C"
 252  0015  0F0F        	mov a,15
 252  0016  00CC        	mov [76],a
 253  0017              #line 253 "D:\FJ-Holtek_Project\VSCode\BS66FV350_20200424-C280\USER_PROGRAM\USER_PROGRAM.C"
 253  0017  1F4D        	clr [77]
 255  0018              #line 255 "D:\FJ-Holtek_Project\VSCode\BS66FV350_20200424-C280\USER_PROGRAM\USER_PROGRAM.C"
 255  0018  B2C7 0001   	lset [327].5
 255  001A  B647 0001   	lclr [327].4
 259  001C              #line 259 "D:\FJ-Holtek_Project\VSCode\BS66FV350_20200424-C280\USER_PROGRAM\USER_PROGRAM.C"
 259  001C  0F31        	mov a,49
 259  001D  00B0        	mov [48],a
 260  001E              #line 260 "D:\FJ-Holtek_Project\VSCode\BS66FV350_20200424-C280\USER_PROGRAM\USER_PROGRAM.C"
 260  001E  0F24        	mov a,36
 260  001F  00B1        	mov [49],a
 261  0020              #line 261 "D:\FJ-Holtek_Project\VSCode\BS66FV350_20200424-C280\USER_PROGRAM\USER_PROGRAM.C"
 261  0020  B1C7 0001   	lset [327].3
 261  0022  B147 0001   	lset [327].2
 282  0024              #line 282 "D:\FJ-Holtek_Project\VSCode\BS66FV350_20200424-C280\USER_PROGRAM\USER_PROGRAM.C"
 282  0024  0F28        	mov a,40
 282  0025  00DD        	mov [93],a
 283  0026              #line 283 "D:\FJ-Holtek_Project\VSCode\BS66FV350_20200424-C280\USER_PROGRAM\USER_PROGRAM.C"
 283  0026  0FC1        	mov a,193
 283  0027  00DE        	mov [94],a
 285  0028              #line 285 "D:\FJ-Holtek_Project\VSCode\BS66FV350_20200424-C280\USER_PROGRAM\USER_PROGRAM.C"
 285  0028  0FE8        	mov a,232
 285  0029  00E1        	mov [97],a
 286  002A              #line 286 "D:\FJ-Holtek_Project\VSCode\BS66FV350_20200424-C280\USER_PROGRAM\USER_PROGRAM.C"
文件：USER_PROGRAM.C 编译器版本 HGASM 0202 页次6

 286  002A  0F03        	mov a,3
 286  002B  00E2        	mov [98],a
 288  002C              #line 288 "D:\FJ-Holtek_Project\VSCode\BS66FV350_20200424-C280\USER_PROGRAM\USER_PROGRAM.C"
 288  002C  37AB        	clr [43].7
 288  002D  31AB        	set [43].3
 289  002E              #line 289 "D:\FJ-Holtek_Project\VSCode\BS66FV350_20200424-C280\USER_PROGRAM\USER_PROGRAM.C"
 289  002E  3711        	clr [17].6
 289  002F  3111        	set [17].2
 293  0030              #line 293 "D:\FJ-Holtek_Project\VSCode\BS66FV350_20200424-C280\USER_PROGRAM\USER_PROGRAM.C"
 293  0030  0F01        	mov a,1
 293  0031  00C4        	mov [68],a
 297  0032              #line 297 "D:\FJ-Holtek_Project\VSCode\BS66FV350_20200424-C280\USER_PROGRAM\USER_PROGRAM.C"
 297  0032  0F86        	mov a,134
 297  0033  00B4        	mov [52],a
 298  0034              #line 298 "D:\FJ-Holtek_Project\VSCode\BS66FV350_20200424-C280\USER_PROGRAM\USER_PROGRAM.C"
 298  0034  33B4        	set [52].7
 299  0035              #line 299 "D:\FJ-Holtek_Project\VSCode\BS66FV350_20200424-C280\USER_PROGRAM\USER_PROGRAM.C"
 299  0035  3712        	clr [18].6
 299  0036  3112        	set [18].2
 303  0037              #line 303 "D:\FJ-Holtek_Project\VSCode\BS66FV350_20200424-C280\USER_PROGRAM\USER_PROGRAM.C"
 303  0037  1FC6        	set [70]
 303  0038  0003        	ret
 303  0039              _SystemInit endp
 303  0039              #line 303 "D:\FJ-Holtek_Project\VSCode\BS66FV350_20200424-C280\USER_PROGRAM\USER_PROGRAM.C"
 303  0039              #pragma debug scope 1 1
 303  0039              public _PowerOFF
 303  0039              #pragma debug scope 7 1
 315  0039              #line 315 "D:\FJ-Holtek_Project\VSCode\BS66FV350_20200424-C280\USER_PROGRAM\USER_PROGRAM.C"
 315  0000              _PowerOFF .section 'code'
 315  0000              _PowerOFF proc
 316  0000              #line 316 "D:\FJ-Holtek_Project\VSCode\BS66FV350_20200424-C280\USER_PROGRAM\USER_PROGRAM.C"
 316  0000  1F00     E  	clr _sysWork[4]
 317  0001              #line 317 "D:\FJ-Holtek_Project\VSCode\BS66FV350_20200424-C280\USER_PROGRAM\USER_PROGRAM.C"
 317  0001  3599        	clr [25].3
 317  0002  3198        	set [24].3
 318  0003              #line 318 "D:\FJ-Holtek_Project\VSCode\BS66FV350_20200424-C280\USER_PROGRAM\USER_PROGRAM.C"
 318  0003  3218        	set [24].4
 319  0004              #line 319 "D:\FJ-Holtek_Project\VSCode\BS66FV350_20200424-C280\USER_PROGRAM\USER_PROGRAM.C"
 319  0004  3298        	set [24].5
 320  0005              #line 320 "D:\FJ-Holtek_Project\VSCode\BS66FV350_20200424-C280\USER_PROGRAM\USER_PROGRAM.C"
 320  0005  1F00     E  	clr _ledUnion[0]
 320  0006  1F00     E  	clr _ledUnion[1]
 321  0007              #line 321 "D:\FJ-Holtek_Project\VSCode\BS66FV350_20200424-C280\USER_PROGRAM\USER_PROGRAM.C"
 321  0007  3000     E  	set _ledUnion[1].4
 322  0008              #line 322 "D:\FJ-Holtek_Project\VSCode\BS66FV350_20200424-C280\USER_PROGRAM\USER_PROGRAM.C"
 322  0008  2000     E  	call _NixieTube_OFF
 322  0009  0003        	ret
 322  000A              _PowerOFF endp
 322  000A              #line 322 "D:\FJ-Holtek_Project\VSCode\BS66FV350_20200424-C280\USER_PROGRAM\USER_PROGRAM.C"
 322  000A              #pragma debug scope 1 1
 322  000A              public _STM_ISR
 322  000A              #pragma debug scope 8 1
  83  000A              #line 83 "D:\FJ-Holtek_Project\VSCode\BS66FV350_20200424-C280\USER_PROGRAM\USER_PROGRAM.C"
  83  0000              @STM_ISR_code .section at 24 'code'
  83  0000              ifdef INTERRUPT_DELAY
  83  0000              	nop
  83  0000              endif
  83  0000  0080     E  	mov r1,a
  83  0001  070A        	mov a,status
  83  0002              ifndef INTERRUPT_DELAY
文件：USER_PROGRAM.C 编译器版本 HGASM 0202 页次7

  83  0002  0080     E  	mov r2,a
  83  0003              endif
  83  0003  2800     R  	jmp _STM_ISR
  83  0004              #pragma debug scope 1 1
  83  0004              @dummy24 endp
  83  0004              #pragma debug scope 9 1
  83  0000              _STM_ISR .section 'code'
  83  0000              _STM_ISR proc
  83  0000              ifdef INTERRUPT_DELAY
  83  0000              	mov r2,a
  83  0000              endif
  83  0000  0703        	mov a,mp
  83  0001  0080     E  	mov r3,a
  83  0002  0704        	mov a,sbp
  83  0003  0080     E  	mov r4,a
  83  0004  0707        	mov a,tblp
  83  0005  0080     E  	mov r5,a
  83  0006  0709        	mov a,tbhp
  83  0007  0080     E  	mov r6,a
  85  0008              #line 85 "D:\FJ-Holtek_Project\VSCode\BS66FV350_20200424-C280\USER_PROGRAM\USER_PROGRAM.C"
  85  0008  1E00     R  	snz _tksPresValue[0]
  85  0009  2800     R  	jmp _L16
  85  000A              #line 85 "D:\FJ-Holtek_Project\VSCode\BS66FV350_20200424-C280\USER_PROGRAM\USER_PROGRAM.C"
  85  000A  0FCF        	mov a,207
  85  000B  0200     R  	sub a,_tksPresTimeCnt[0]
  85  000C  0F07        	mov a,7
  85  000D  1200     R  	sbc a,_tksPresTimeCnt[1]
  85  000E  380A        	snz c
  85  000F  2800     R  	jmp _L16
  86  0010              #line 86 "D:\FJ-Holtek_Project\VSCode\BS66FV350_20200424-C280\USER_PROGRAM\USER_PROGRAM.C"
  86  0010  0F01        	mov a,1
  86  0011  0300     R  	add a,_tksPresTimeCnt[0]
  86  0012  0080     E  	mov rb,a
  86  0013  0F00        	mov a,0
  86  0014  1300     R  	adc a,_tksPresTimeCnt[1]
  86  0015  0080     E  	mov rc,a
  86  0016  0700     E  	mov a,rb
  86  0017  0080     R  	mov _tksPresTimeCnt[0],a
  86  0018  0700     E  	mov a,rc
  86  0019  0080     R  	mov _tksPresTimeCnt[1],a
  86  001A  0700     E  	mov a,rb
  86  001B  0AD0        	sub a,208
  86  001C  0700     E  	mov a,rc
  86  001D  0807        	sbc a,7
  86  001E  3B0A        	snz cz
  86  001F  2800     R  	jmp _L16
  87  0020              #line 87 "D:\FJ-Holtek_Project\VSCode\BS66FV350_20200424-C280\USER_PROGRAM\USER_PROGRAM.C"
  87  0020  3000     R  	set _tksPresValue[0].7
  87  0021              _L16:
  92  0021              #line 92 "D:\FJ-Holtek_Project\VSCode\BS66FV350_20200424-C280\USER_PROGRAM\USER_PROGRAM.C"
  92  0021  2000     E  	call _BUZZ_ActionType
  95  0022              #line 95 "D:\FJ-Holtek_Project\VSCode\BS66FV350_20200424-C280\USER_PROGRAM\USER_PROGRAM.C"
  95  0022  1700     E  	sdza _sysWork[4]
  95  0023  2800     R  	jmp _L18
  96  0024              #line 96 "D:\FJ-Holtek_Project\VSCode\BS66FV350_20200424-C280\USER_PROGRAM\USER_PROGRAM.C"
  96  0024  1F00     E  	clr _builtin_holtek_udivmodhi4_2[6]
  96  0025  0700     R  	mov a,_Timestamp[0]  
  96  0026  0080     E  	mov _builtin_holtek_udivmodhi4_2[0],a  
  96  0027  0700     R  	mov a,_Timestamp[1]  
  96  0028  0080     E  	mov _builtin_holtek_udivmodhi4_2[1],a
文件：USER_PROGRAM.C 编译器版本 HGASM 0202 页次8

  96  0029  0F90        	mov a,144  
  96  002A  0080     E  	mov _builtin_holtek_udivmodhi4_2[2],a  
  96  002B  0F01        	mov a,1  
  96  002C  0080     E  	mov _builtin_holtek_udivmodhi4_2[3],a
  96  002D  2000     E  	call _builtin_holtek_udivmodhi4
  96  002E  0700     E  	mov a,_builtin_holtek_udivmodhi4_2[4]  
  96  002F  0080     E  	mov rb,a  
  96  0030  0700     E  	mov a,_builtin_holtek_udivmodhi4_2[5]  
  96  0031  0080     E  	mov rc,a
  96  0032  0700     E  	mov a,rb
  96  0033  0500     E  	or a,rc
  96  0034  390A        	snz z
  96  0035  2800     R  	jmp _L19
  97  0036              #line 97 "D:\FJ-Holtek_Project\VSCode\BS66FV350_20200424-C280\USER_PROGRAM\USER_PROGRAM.C"
  97  0036  0100     E  	cpla _ledUnion[0]
  97  0037  0080     E  	mov ra,a
  97  0038  0F80        	mov a,128
  97  0039  0680     E  	andm a,ra
  97  003A  3400     E  	clr _ledUnion[0].7
  97  003B  0700     E  	mov a,ra
  97  003C  0580     E  	orm a,_ledUnion[0]
  97  003D              _L19:
  99  003D              #line 99 "D:\FJ-Holtek_Project\VSCode\BS66FV350_20200424-C280\USER_PROGRAM\USER_PROGRAM.C"
  99  003D  0F01        	mov a,1
  99  003E  0300     R  	add a,_secTimeCnt[0]
  99  003F  0080     E  	mov rb,a
  99  0040  0F00        	mov a,0
  99  0041  1300     R  	adc a,_secTimeCnt[1]
  99  0042  0080     E  	mov rc,a
  99  0043  0700     E  	mov a,rb
  99  0044  0080     R  	mov _secTimeCnt[0],a
  99  0045  0700     E  	mov a,rc
  99  0046  0080     R  	mov _secTimeCnt[1],a
  99  0047  0FE7        	mov a,231
  99  0048  0200     E  	sub a,rb
  99  0049  0F03        	mov a,3
  99  004A  1200     E  	sbc a,rc
  99  004B  3C0A        	sz c
  99  004C  2800     R  	jmp _L21
 100  004D              #line 100 "D:\FJ-Holtek_Project\VSCode\BS66FV350_20200424-C280\USER_PROGRAM\USER_PROGRAM.C"
 100  004D  1480     R  	inc _tksSetTimeCnt[0]
 100  004E  3D0A        	sz z
 100  004F  1480     R  	inc _tksSetTimeCnt[1]
 100  0050  2800     R  	jmp _L38
 100  0051              _L18:
 103  0051              #line 103 "D:\FJ-Holtek_Project\VSCode\BS66FV350_20200424-C280\USER_PROGRAM\USER_PROGRAM.C"
 103  0051  0700     E  	mov a,_sysWork[4]
 103  0052  0A02        	sub a,2
 103  0053  3D0A        	sz z
 103  0054  2800     R  	jmp _L22
 103  0055  0700     E  	mov a,_stopDownCount[0]
 103  0056  0500     E  	or a,_stopDownCount[1]
 103  0057  3D0A        	sz z
 103  0058  2800     R  	jmp _L21
 103  0059              _L22:
 105  0059              #line 105 "D:\FJ-Holtek_Project\VSCode\BS66FV350_20200424-C280\USER_PROGRAM\USER_PROGRAM.C"
 105  0059  0F01        	mov a,1
 105  005A  0300     R  	add a,_secTimeCnt[0]
 105  005B  0080     E  	mov rb,a
 105  005C  0F00        	mov a,0
文件：USER_PROGRAM.C 编译器版本 HGASM 0202 页次9

 105  005D  1300     R  	adc a,_secTimeCnt[1]
 105  005E  0080     E  	mov rc,a
 105  005F  0700     E  	mov a,rb
 105  0060  0080     R  	mov _secTimeCnt[0],a
 105  0061  0700     E  	mov a,rc
 105  0062  0080     R  	mov _secTimeCnt[1],a
 105  0063  0FE7        	mov a,231
 105  0064  0200     E  	sub a,rb
 105  0065  0F03        	mov a,3
 105  0066  1200     E  	sbc a,rc
 105  0067  3C0A        	sz c
 105  0068  2800     R  	jmp _L24
 106  0069              #line 106 "D:\FJ-Holtek_Project\VSCode\BS66FV350_20200424-C280\USER_PROGRAM\USER_PROGRAM.C"
 106  0069  0700     E  	mov a,_stopDownCount[0]
 106  006A  0500     E  	or a,_stopDownCount[1]
 106  006B  390A        	snz z
 106  006C  2800     R  	jmp _L25
 107  006D              #line 107 "D:\FJ-Holtek_Project\VSCode\BS66FV350_20200424-C280\USER_PROGRAM\USER_PROGRAM.C"
 107  006D  0700     E  	mov a,_sysWork[0]
 107  006E  0500     E  	or a,_sysWork[1]
 107  006F  3D0A        	sz z
 107  0070  2800     R  	jmp _L26
 108  0071              #line 108 "D:\FJ-Holtek_Project\VSCode\BS66FV350_20200424-C280\USER_PROGRAM\USER_PROGRAM.C"
 108  0071  1400     R  	inca _time5sCnt[0]
 108  0072  0080     E  	mov ra,a
 108  0073  0700     E  	mov a,ra
 108  0074  0080     R  	mov _time5sCnt[0],a
 108  0075  0700     E  	mov a,_interDistime[0]
 108  0076  0200     E  	sub a,ra
 108  0077  3C0A        	sz c
 108  0078  2800     R  	jmp _L27
 109  0079              #line 109 "D:\FJ-Holtek_Project\VSCode\BS66FV350_20200424-C280\USER_PROGRAM\USER_PROGRAM.C"
 109  0079  0F01        	mov a,1
 109  007A  0080     E  	mov ra,a
 109  007B  1E00     E  	snz _nixTubeDisType[0]
 109  007C  2800     R  	jmp _L28
 109  007D  1F00     E  	clr ra
 109  007E              _L28:
 109  007E  0700     E  	mov a,ra
 109  007F  0080     E  	mov _nixTubeDisType[0],a
 110  0080              #line 110 "D:\FJ-Holtek_Project\VSCode\BS66FV350_20200424-C280\USER_PROGRAM\USER_PROGRAM.C"
 110  0080  3400     E  	clr _ledUnion[1].3
 111  0081              #line 111 "D:\FJ-Holtek_Project\VSCode\BS66FV350_20200424-C280\USER_PROGRAM\USER_PROGRAM.C"
 111  0081  0700     E  	mov a,_interDistime[0]
 111  0082  0A03        	sub a,3
 111  0083  390A        	snz z
 111  0084  2800     R  	jmp _L29
 112  0085              #line 112 "D:\FJ-Holtek_Project\VSCode\BS66FV350_20200424-C280\USER_PROGRAM\USER_PROGRAM.C"
 112  0085  3000     E  	set _ledUnion[1].2
 112  0086  2800     R  	jmp _L30
 112  0087              _L29:
 114  0087              #line 114 "D:\FJ-Holtek_Project\VSCode\BS66FV350_20200424-C280\USER_PROGRAM\USER_PROGRAM.C"
 114  0087  3400     E  	clr _ledUnion[1].2
 114  0088              _L30:
 116  0088              #line 116 "D:\FJ-Holtek_Project\VSCode\BS66FV350_20200424-C280\USER_PROGRAM\USER_PROGRAM.C"
 116  0088  0100     E  	cpla _ledUnion[1]
 116  0089  0080     E  	mov ra,a
 116  008A  0F80        	mov a,128
 116  008B  0680     E  	andm a,ra
 116  008C  3400     E  	clr _ledUnion[1].7
文件：USER_PROGRAM.C 编译器版本 HGASM 0202 页次10

 116  008D  0700     E  	mov a,ra
 116  008E  0580     E  	orm a,_ledUnion[1]
 117  008F              #line 117 "D:\FJ-Holtek_Project\VSCode\BS66FV350_20200424-C280\USER_PROGRAM\USER_PROGRAM.C"
 117  008F  1100     E  	swapa _ledUnion[1]
 117  0090  1985        	rr acc
 117  0091  0E07        	and a,07h
 117  0092  0080     E  	mov ra,a
 117  0093  0F01        	mov a,1
 117  0094  0480     E  	xorm a,ra
 117  0095  0F01        	mov a,1
 117  0096  0680     E  	andm a,ra
 117  0097  1100     E  	swapa ra
 117  0098  1885        	rl acc
 117  0099  0EE0        	and a,0e0h
 117  009A  0080     E  	mov ra,a
 117  009B  3400     E  	clr _ledUnion[1].5
 117  009C  0700     E  	mov a,ra
 117  009D  0580     E  	orm a,_ledUnion[1]
 118  009E              #line 118 "D:\FJ-Holtek_Project\VSCode\BS66FV350_20200424-C280\USER_PROGRAM\USER_PROGRAM.C"
 118  009E  1F00     R  	clr _time5sCnt[0]
 118  009F              _L27:
 120  009F              #line 120 "D:\FJ-Holtek_Project\VSCode\BS66FV350_20200424-C280\USER_PROGRAM\USER_PROGRAM.C"
 120  009F  0FFF        	mov a,255
 120  00A0  0300     E  	add a,_sysWork[0]
 120  00A1  0080     E  	mov rb,a
 120  00A2  0FFF        	mov a,255
 120  00A3  1300     E  	adc a,_sysWork[1]
 120  00A4  0080     E  	mov rc,a
 120  00A5  0700     E  	mov a,rb
 120  00A6  0080     E  	mov _sysWork[0],a
 120  00A7  0700     E  	mov a,rc
 120  00A8  0080     E  	mov _sysWork[1],a
 120  00A9  0700     E  	mov a,rb
 120  00AA  0500     E  	or a,rc
 120  00AB  390A        	snz z
 120  00AC  2800     R  	jmp _L31
 121  00AD              #line 121 "D:\FJ-Holtek_Project\VSCode\BS66FV350_20200424-C280\USER_PROGRAM\USER_PROGRAM.C"
 121  00AD  0F05        	mov a,5
 121  00AE  0080     R  	mov _time5sDelayCnt[0],a
 122  00AF              #line 122 "D:\FJ-Holtek_Project\VSCode\BS66FV350_20200424-C280\USER_PROGRAM\USER_PROGRAM.C"
 122  00AF  3000     R  	set _secUpdate
 123  00B0              #line 123 "D:\FJ-Holtek_Project\VSCode\BS66FV350_20200424-C280\USER_PROGRAM\USER_PROGRAM.C"
 123  00B0  3400     E  	clr _ledUnion[1].3
 124  00B1              #line 124 "D:\FJ-Holtek_Project\VSCode\BS66FV350_20200424-C280\USER_PROGRAM\USER_PROGRAM.C"
 124  00B1  3400     E  	clr _ledUnion[1].7
 125  00B2              #line 125 "D:\FJ-Holtek_Project\VSCode\BS66FV350_20200424-C280\USER_PROGRAM\USER_PROGRAM.C"
 125  00B2  3000     E  	set _ledUnion[1].2
 126  00B3              #line 126 "D:\FJ-Holtek_Project\VSCode\BS66FV350_20200424-C280\USER_PROGRAM\USER_PROGRAM.C"
 126  00B3  3000     E  	set _ledUnion[1].5
 127  00B4              #line 127 "D:\FJ-Holtek_Project\VSCode\BS66FV350_20200424-C280\USER_PROGRAM\USER_PROGRAM.C"
 127  00B4  0F01        	mov a,1
 127  00B5  0080     E  	mov _nixTubeDisType[0],a
 128  00B6              #line 128 "D:\FJ-Holtek_Project\VSCode\BS66FV350_20200424-C280\USER_PROGRAM\USER_PROGRAM.C"
 128  00B6  0F04        	mov a,4
 128  00B7  0080     E  	mov _buzzType[0],a
 128  00B8  2800     R  	jmp _L32
 128  00B9              _L31:
 130  00B9              #line 130 "D:\FJ-Holtek_Project\VSCode\BS66FV350_20200424-C280\USER_PROGRAM\USER_PROGRAM.C"
 130  00B9  3C00     R  	sz _secUpdate
 130  00BA  2800     R  	jmp _LI1
文件：USER_PROGRAM.C 编译器版本 HGASM 0202 页次11

 130  00BB  3000     R  	set _secUpdate
 130  00BC  2800     R  	jmp _LI2
 130  00BD              _LI1:
 130  00BD  3400     R  	clr _secUpdate
 130  00BE              _LI2:
 130  00BE  2800     R  	jmp _L32
 130  00BF              _L26:
 133  00BF              #line 133 "D:\FJ-Holtek_Project\VSCode\BS66FV350_20200424-C280\USER_PROGRAM\USER_PROGRAM.C"
 133  00BF  1E00     R  	snz _time5sDelayCnt[0]
 133  00C0  2800     R  	jmp _L32
 134  00C1              #line 134 "D:\FJ-Holtek_Project\VSCode\BS66FV350_20200424-C280\USER_PROGRAM\USER_PROGRAM.C"
 134  00C1  1500     R  	deca _time5sDelayCnt[0]
 134  00C2  0080     E  	mov ra,a
 134  00C3  0700     E  	mov a,ra
 134  00C4  0080     R  	mov _time5sDelayCnt[0],a
 134  00C5  1080     E  	sz ra
 134  00C6  2800     R  	jmp _L32
 135  00C7              #line 135 "D:\FJ-Holtek_Project\VSCode\BS66FV350_20200424-C280\USER_PROGRAM\USER_PROGRAM.C"
 135  00C7  1F00     E  	clr _nixTubeDisType[0]
 136  00C8              #line 136 "D:\FJ-Holtek_Project\VSCode\BS66FV350_20200424-C280\USER_PROGRAM\USER_PROGRAM.C"
 136  00C8  0700     E  	mov a,_interDistime[0]
 136  00C9  0A03        	sub a,3
 136  00CA  390A        	snz z
 136  00CB  2800     R  	jmp _L32
 137  00CC              #line 137 "D:\FJ-Holtek_Project\VSCode\BS66FV350_20200424-C280\USER_PROGRAM\USER_PROGRAM.C"
 137  00CC  0F14        	mov a,20
 137  00CD  0080     E  	mov _stopDownCount[0],a
 137  00CE  0F0A        	mov a,10
 137  00CF  0080     E  	mov _stopDownCount[1],a
 137  00D0              _L32:
 142  00D0              #line 142 "D:\FJ-Holtek_Project\VSCode\BS66FV350_20200424-C280\USER_PROGRAM\USER_PROGRAM.C"
 142  00D0  1E00     E  	snz _nixTubeDisType[0]
 142  00D1  2800     R  	jmp _L35
 142  00D2  1E00     R  	snz _time5sDelayCnt[0]
 142  00D3  2800     R  	jmp _L36
 142  00D4              _L35:
 143  00D4              #line 143 "D:\FJ-Holtek_Project\VSCode\BS66FV350_20200424-C280\USER_PROGRAM\USER_PROGRAM.C"
 143  00D4  0700     E  	mov a,_interDistime[0]
 143  00D5  0A03        	sub a,3
 143  00D6  390A        	snz z
 143  00D7  2800     R  	jmp _L37
 144  00D8              #line 144 "D:\FJ-Holtek_Project\VSCode\BS66FV350_20200424-C280\USER_PROGRAM\USER_PROGRAM.C"
 144  00D8  3000     E  	set _ledUnion[1].2
 144  00D9  2800     R  	jmp _L38
 144  00DA              _L37:
 146  00DA              #line 146 "D:\FJ-Holtek_Project\VSCode\BS66FV350_20200424-C280\USER_PROGRAM\USER_PROGRAM.C"
 146  00DA  1900     E  	rra _ledUnion[1]
 146  00DB  1985        	rr acc
 146  00DC  0E3F        	and a,03fh
 146  00DD  0080     E  	mov rb,a
 146  00DE  0F01        	mov a,1
 146  00DF  0480     E  	xorm a,rb
 146  00E0  0F01        	mov a,1
 146  00E1  0680     E  	andm a,rb
 146  00E2  1F00     E  	clr ra
 146  00E3  1080     E  	sz rb
 146  00E4  3000     E  	set ra.2
 146  00E5  3400     E  	clr _ledUnion[1].2
 146  00E6  2800     R  	jmp _L55
 146  00E7              _L36:
文件：USER_PROGRAM.C 编译器版本 HGASM 0202 页次12

 149  00E7              #line 149 "D:\FJ-Holtek_Project\VSCode\BS66FV350_20200424-C280\USER_PROGRAM\USER_PROGRAM.C"
 149  00E7  1100     E  	swapa _ledUnion[1]
 149  00E8  1885        	rl acc
 149  00E9  0E1F        	and a,1fh
 149  00EA  0080     E  	mov ra,a
 149  00EB  0F01        	mov a,1
 149  00EC  0480     E  	xorm a,ra
 149  00ED  0F01        	mov a,1
 149  00EE  0680     E  	andm a,ra
 149  00EF  1100     E  	swapa ra
 149  00F0  1985        	rr acc
 149  00F1  0EF8        	and a,0f8h
 149  00F2  0080     E  	mov ra,a
 149  00F3  3400     E  	clr _ledUnion[1].3
 149  00F4              _L55:
 149  00F4  0700     E  	mov a,ra
 149  00F5  0580     E  	orm a,_ledUnion[1]
 149  00F6  2800     R  	jmp _L38
 149  00F7              _L25:
 153  00F7              #line 153 "D:\FJ-Holtek_Project\VSCode\BS66FV350_20200424-C280\USER_PROGRAM\USER_PROGRAM.C"
 153  00F7  0FFF        	mov a,255
 153  00F8  0300     E  	add a,_stopDownCount[0]
 153  00F9  0080     E  	mov rb,a
 153  00FA  0FFF        	mov a,255
 153  00FB  1300     E  	adc a,_stopDownCount[1]
 153  00FC  0080     E  	mov rc,a
 153  00FD  0700     E  	mov a,rb
 153  00FE  0080     E  	mov _stopDownCount[0],a
 153  00FF  0700     E  	mov a,rc
 153  0100  0080     E  	mov _stopDownCount[1],a
 153  0101  0700     E  	mov a,rb
 153  0102  0CB4        	xor a,180
 153  0103  0500     E  	or a,rc
 153  0104  390A        	snz z
 153  0105  2800     R  	jmp _L39
 154  0106              #line 154 "D:\FJ-Holtek_Project\VSCode\BS66FV350_20200424-C280\USER_PROGRAM\USER_PROGRAM.C"
 154  0106  0F05        	mov a,5
 154  0107  0080     E  	mov _buzzType[0],a
 155  0108              #line 155 "D:\FJ-Holtek_Project\VSCode\BS66FV350_20200424-C280\USER_PROGRAM\USER_PROGRAM.C"
 155  0108  2000     R  	call _PowerOFF
 156  0109              #line 156 "D:\FJ-Holtek_Project\VSCode\BS66FV350_20200424-C280\USER_PROGRAM\USER_PROGRAM.C"
 156  0109  3698        	clr [24].5
 156  010A              _L39:
 158  010A              #line 158 "D:\FJ-Holtek_Project\VSCode\BS66FV350_20200424-C280\USER_PROGRAM\USER_PROGRAM.C"
 158  010A  0F01        	mov a,1
 158  010B  0200     E  	sub a,_stopDownCount[0]
 158  010C  0F00        	mov a,0
 158  010D  1200     E  	sbc a,_stopDownCount[1]
 158  010E  380A        	snz c
 158  010F  2800     R  	jmp _L38
 159  0110              #line 159 "D:\FJ-Holtek_Project\VSCode\BS66FV350_20200424-C280\USER_PROGRAM\USER_PROGRAM.C"
 159  0110  3298        	set [24].5
 160  0111              #line 160 "D:\FJ-Holtek_Project\VSCode\BS66FV350_20200424-C280\USER_PROGRAM\USER_PROGRAM.C"
 160  0111  1F00     E  	clr _stopDownCount[0]
 160  0112  1F00     E  	clr _stopDownCount[1]
 160  0113              _L38:
 164  0113              #line 164 "D:\FJ-Holtek_Project\VSCode\BS66FV350_20200424-C280\USER_PROGRAM\USER_PROGRAM.C"
 164  0113  1F00     R  	clr _secTimeCnt[0]
 164  0114  1F00     R  	clr _secTimeCnt[1]
 164  0115  2800     R  	jmp _L21
文件：USER_PROGRAM.C 编译器版本 HGASM 0202 页次13

 164  0116              _L24:
 165  0116              #line 165 "D:\FJ-Holtek_Project\VSCode\BS66FV350_20200424-C280\USER_PROGRAM\USER_PROGRAM.C"
 165  0116  0700     R  	mov a,_secTimeCnt[0]
 165  0117  0AF4        	sub a,244
 165  0118  0700     R  	mov a,_secTimeCnt[1]
 165  0119  0801        	sbc a,1
 165  011A  3B0A        	snz cz
 165  011B  2800     R  	jmp _L21
 166  011C              #line 166 "D:\FJ-Holtek_Project\VSCode\BS66FV350_20200424-C280\USER_PROGRAM\USER_PROGRAM.C"
 166  011C  0700     E  	mov a,_sysWork[0]
 166  011D  0500     E  	or a,_sysWork[1]
 166  011E  3D0A        	sz z
 166  011F  2800     R  	jmp _L21
 167  0120              #line 167 "D:\FJ-Holtek_Project\VSCode\BS66FV350_20200424-C280\USER_PROGRAM\USER_PROGRAM.C"
 167  0120  3C00     R  	sz _secUpdate
 167  0121  2800     R  	jmp _LI3
 167  0122  3000     R  	set _secUpdate
 167  0123  2800     R  	jmp _LI4
 167  0124              _LI3:
 167  0124  3400     R  	clr _secUpdate
 167  0125              _LI4:
 167  0125              _L21:
 173  0125              #line 173 "D:\FJ-Holtek_Project\VSCode\BS66FV350_20200424-C280\USER_PROGRAM\USER_PROGRAM.C"
 173  0125  1480     R  	inc _Timestamp[0]
 173  0126  3D0A        	sz z
 173  0127  1480     R  	inc _Timestamp[1]
 179  0128              #line 179 "D:\FJ-Holtek_Project\VSCode\BS66FV350_20200424-C280\USER_PROGRAM\USER_PROGRAM.C"
 179  0128  37AB        	clr [43].7
 180  0129              #line 180 "D:\FJ-Holtek_Project\VSCode\BS66FV350_20200424-C280\USER_PROGRAM\USER_PROGRAM.C"
 180  0129  3711        	clr [17].6
 180  012A  0700     E  	mov a,r2
 180  012B  008A        	mov status,a
 180  012C  0700     E  	mov a,r3
 180  012D  0083        	mov mp,a
 180  012E  0700     E  	mov a,r4
 180  012F  0084        	mov sbp,a
 180  0130  0700     E  	mov a,r5
 180  0131  0087        	mov tblp,a
 180  0132  0700     E  	mov a,r6
 180  0133  0089        	mov tbhp,a
 180  0134  1D05        	tabrdc acc
 180  0135  0700     E  	mov a,r1
 180  0136  0004        	reti
 180  0137              _STM_ISR endp
 180  0137              
 180  0137              #line 180 "D:\FJ-Holtek_Project\VSCode\BS66FV350_20200424-C280\USER_PROGRAM\USER_PROGRAM.C"
 180  0137              #pragma debug scope 1 1
 180  0137              public _USER_PROGRAM_INITIAL
 180  0137              #pragma debug scope 10 1
 331  0137              #line 331 "D:\FJ-Holtek_Project\VSCode\BS66FV350_20200424-C280\USER_PROGRAM\USER_PROGRAM.C"
 331  0000              _USER_PROGRAM_INITIAL .section 'code'
 331  0000              _USER_PROGRAM_INITIAL proc
 332  0000              #line 332 "D:\FJ-Holtek_Project\VSCode\BS66FV350_20200424-C280\USER_PROGRAM\USER_PROGRAM.C"
 332  0000  2000     R  	call _SystemInit
 334  0001              #line 334 "D:\FJ-Holtek_Project\VSCode\BS66FV350_20200424-C280\USER_PROGRAM\USER_PROGRAM.C"
 334  0001  0F06        	mov a,6
 334  0002  0080     E  	mov _buzzType[0],a
 336  0003              #line 336 "D:\FJ-Holtek_Project\VSCode\BS66FV350_20200424-C280\USER_PROGRAM\USER_PROGRAM.C"
 336  0003  2000     R  	call _PowerOFF
 340  0004              #line 340 "D:\FJ-Holtek_Project\VSCode\BS66FV350_20200424-C280\USER_PROGRAM\USER_PROGRAM.C"
文件：USER_PROGRAM.C 编译器版本 HGASM 0202 页次14

 340  0004  1F00     R  	clr _tksPresTimeCnt[0]
 340  0005  1F00     R  	clr _tksPresTimeCnt[1]
 341  0006              #line 341 "D:\FJ-Holtek_Project\VSCode\BS66FV350_20200424-C280\USER_PROGRAM\USER_PROGRAM.C"
 341  0006  1F00     R  	clr _tksPresValue[0]
 343  0007              #line 343 "D:\FJ-Holtek_Project\VSCode\BS66FV350_20200424-C280\USER_PROGRAM\USER_PROGRAM.C"
 343  0007  1F00     E  	clr _stopDownCount[0]
 343  0008  1F00     E  	clr _stopDownCount[1]
 345  0009              #line 345 "D:\FJ-Holtek_Project\VSCode\BS66FV350_20200424-C280\USER_PROGRAM\USER_PROGRAM.C"
 345  0009  3010        	set [16].0
 345  000A  0003        	ret
 345  000B              _USER_PROGRAM_INITIAL endp
 345  000B              #line 345 "D:\FJ-Holtek_Project\VSCode\BS66FV350_20200424-C280\USER_PROGRAM\USER_PROGRAM.C"
 345  000B              #pragma debug scope 1 1
 345  000B              public _Touch_Scan
 345  000B              #pragma debug scope 11 1
 393  000B              #line 393 "D:\FJ-Holtek_Project\VSCode\BS66FV350_20200424-C280\USER_PROGRAM\USER_PROGRAM.C"
 393  0000              _Touch_Scan .section 'code'
 393  0000              _Touch_Scan proc
 393  0000  00              local _Touch_Scan_2 db 1 dup(?)	; 0,1
 396  0001              #line 396 "D:\FJ-Holtek_Project\VSCode\BS66FV350_20200424-C280\USER_PROGRAM\USER_PROGRAM.C"
 396  0000  1E00     R  	snz _tksPresValue[0]
 396  0001  2800     R  	jmp _L58
 397  0002              #line 397 "D:\FJ-Holtek_Project\VSCode\BS66FV350_20200424-C280\USER_PROGRAM\USER_PROGRAM.C"
 397  0002  0700     E  	mov a,_DATA_BUF[2]
 397  0003  0500     E  	or a,_DATA_BUF[1]
 397  0004  0080     E  	mov ra,a
 397  0005  1080     E  	sz ra
 397  0006  2800     R  	jmp _L59
 398  0007              #line 398 "D:\FJ-Holtek_Project\VSCode\BS66FV350_20200424-C280\USER_PROGRAM\USER_PROGRAM.C"
 398  0007  0FB0        	mov a,176
 398  0008  0200     R  	sub a,_tksPresTimeCnt[0]
 398  0009  0F04        	mov a,4
 398  000A  1200     R  	sbc a,_tksPresTimeCnt[1]
 398  000B  380A        	snz c
 398  000C  2800     R  	jmp _L100
 402  000D              #line 402 "D:\FJ-Holtek_Project\VSCode\BS66FV350_20200424-C280\USER_PROGRAM\USER_PROGRAM.C"
 402  000D  0700     R  	mov a,_tksPresValue[0]
 402  000E  0EC0        	and a,192
 402  000F  0080     E  	mov ra,a
 402  0010  1080     E  	sz ra
 402  0011  2800     R  	jmp _L100
 406  0012              #line 406 "D:\FJ-Holtek_Project\VSCode\BS66FV350_20200424-C280\USER_PROGRAM\USER_PROGRAM.C"
 406  0012  3000     R  	set _tksPresValue[0].6
 406  0013              _L59:
 411  0013              #line 411 "D:\FJ-Holtek_Project\VSCode\BS66FV350_20200424-C280\USER_PROGRAM\USER_PROGRAM.C"
 411  0013  0700     R  	mov a,_tksPresValue[0]
 411  0014  0EC0        	and a,192
 411  0015  0080     E  	mov ra,a
 411  0016  1E00     E  	snz ra
 411  0017  2800     R  	jmp _L57
 414  0018              #line 414 "D:\FJ-Holtek_Project\VSCode\BS66FV350_20200424-C280\USER_PROGRAM\USER_PROGRAM.C"
 414  0018  0700     R  	mov a,_tksPresValue[0]
 414  0019  0E3F        	and a,63
 414  001A  0080     R  	mov _Touch_Scan_2[0],a
 417  001B              #line 417 "D:\FJ-Holtek_Project\VSCode\BS66FV350_20200424-C280\USER_PROGRAM\USER_PROGRAM.C"
 417  001B  3800     R  	snz _tksPresValue[0].7
 417  001C  2800     R  	jmp _L64
 418  001D              #line 418 "D:\FJ-Holtek_Project\VSCode\BS66FV350_20200424-C280\USER_PROGRAM\USER_PROGRAM.C"
 418  001D  1E00     E  	snz _tksFun[2]
 418  001E  2800     R  	jmp _L57
文件：USER_PROGRAM.C 编译器版本 HGASM 0202 页次15

 418  001F  0700     R  	mov a,_Touch_Scan_2[0]
 418  0020  0BF0        	add a,240
 418  0021  0080     E  	mov ra,a
 418  0022  0F01        	mov a,1
 418  0023  0200     E  	sub a,ra
 418  0024  380A        	snz c
 418  0025  2800     R  	jmp _L57
 418  0026              _L64:
 425  0026              #line 425 "D:\FJ-Holtek_Project\VSCode\BS66FV350_20200424-C280\USER_PROGRAM\USER_PROGRAM.C"
 425  0026  0700     E  	mov a,_sysWork[4]
 425  0027  0A80        	sub a,128
 425  0028  390A        	snz z
 425  0029  2800     R  	jmp _L66
 426  002A              #line 426 "D:\FJ-Holtek_Project\VSCode\BS66FV350_20200424-C280\USER_PROGRAM\USER_PROGRAM.C"
 426  002A  0700     R  	mov a,_Touch_Scan_2[0]
 426  002B  0A0F        	sub a,15
 426  002C  390A        	snz z
 426  002D  2800     R  	jmp _L100
 426  002E              _L102:
 428  002E              #line 428 "D:\FJ-Holtek_Project\VSCode\BS66FV350_20200424-C280\USER_PROGRAM\USER_PROGRAM.C"
 428  002E  0F05        	mov a,5
 428  002F  0080     E  	mov _buzzType[0],a
 429  0030              #line 429 "D:\FJ-Holtek_Project\VSCode\BS66FV350_20200424-C280\USER_PROGRAM\USER_PROGRAM.C"
 429  0030  2000     R  	call _PowerOFF
 430  0031              #line 430 "D:\FJ-Holtek_Project\VSCode\BS66FV350_20200424-C280\USER_PROGRAM\USER_PROGRAM.C"
 430  0031  3698        	clr [24].5
 431  0032              #line 431 "D:\FJ-Holtek_Project\VSCode\BS66FV350_20200424-C280\USER_PROGRAM\USER_PROGRAM.C"
 431  0032  0FB4        	mov a,-76
 431  0033  0080     E  	mov _stopDownCount[0],a
 431  0034  1F00     E  	clr _stopDownCount[1]
 431  0035              _L100:
 432  0035              #line 432 "D:\FJ-Holtek_Project\VSCode\BS66FV350_20200424-C280\USER_PROGRAM\USER_PROGRAM.C"
 432  0035  1F00     R  	clr _tksPresValue[0]
 433  0036              #line 433 "D:\FJ-Holtek_Project\VSCode\BS66FV350_20200424-C280\USER_PROGRAM\USER_PROGRAM.C"
 433  0036  2800     R  	jmp _L57
 433  0037              _L66:
 441  0037              #line 441 "D:\FJ-Holtek_Project\VSCode\BS66FV350_20200424-C280\USER_PROGRAM\USER_PROGRAM.C"
 441  0037  1080     E  	sz _sysWork[4]
 441  0038  2800     R  	jmp _L68
 442  0039              #line 442 "D:\FJ-Holtek_Project\VSCode\BS66FV350_20200424-C280\USER_PROGRAM\USER_PROGRAM.C"
 442  0039  0700     R  	mov a,_Touch_Scan_2[0]
 442  003A  0A0F        	sub a,15
 442  003B  390A        	snz z
 442  003C  2800     R  	jmp _L100
 443  003D              #line 443 "D:\FJ-Holtek_Project\VSCode\BS66FV350_20200424-C280\USER_PROGRAM\USER_PROGRAM.C"
 443  003D  0F01        	mov a,1
 443  003E  0080     E  	mov _buzzType[0],a
 445  003F              #line 445 "D:\FJ-Holtek_Project\VSCode\BS66FV350_20200424-C280\USER_PROGRAM\USER_PROGRAM.C"
 445  003F  1F80     E  	set _ledUnion[0]
 445  0040  0F77        	mov a,119
 445  0041  0080     E  	mov _ledUnion[1],a
 446  0042              #line 446 "D:\FJ-Holtek_Project\VSCode\BS66FV350_20200424-C280\USER_PROGRAM\USER_PROGRAM.C"
 446  0042  1F00     E  	clr _tksFun[2]
 447  0043              #line 447 "D:\FJ-Holtek_Project\VSCode\BS66FV350_20200424-C280\USER_PROGRAM\USER_PROGRAM.C"
 447  0043  0F05        	mov a,5
 447  0044  0080     E  	mov _tksFun[0],a
 448  0045              #line 448 "D:\FJ-Holtek_Project\VSCode\BS66FV350_20200424-C280\USER_PROGRAM\USER_PROGRAM.C"
 448  0045  0F05        	mov a,5
 448  0046  0080     E  	mov _tksFun[1],a
 449  0047              #line 449 "D:\FJ-Holtek_Project\VSCode\BS66FV350_20200424-C280\USER_PROGRAM\USER_PROGRAM.C"
文件：USER_PROGRAM.C 编译器版本 HGASM 0202 页次16

 449  0047  0700     E  	mov a,_tksFun[1]
 449  0048  0080     E  	mov rb,a
 449  0049  1F00     E  	clr rc
 449  004A  340A        	clr c
 449  004B  1A00     E  	rlca rb
 449  004C  0080     E  	mov rd,a
 449  004D  1A00     E  	rlca rc
 449  004E  0080     E  	mov re,a
 449  004F  340A        	clr c
 449  0050  1A80     E  	rlc rd
 449  0051  1A80     E  	rlc re
 449  0052  0700     E  	mov a,rd
 449  0053  0380     E  	addm a,rb
 449  0054  0700     E  	mov a,re
 449  0055  1380     E  	adcm a,rc
 449  0056  340A        	clr c
 449  0057  1A80     E  	rlc rb
 449  0058  1A80     E  	rlc rc
 449  0059  0F96        	mov a,150
 449  005A  0300     E  	add a,rb
 449  005B  0080     E  	mov _sysWork[2],a
 449  005C  0F00        	mov a,0
 449  005D  1300     E  	adc a,rc
 449  005E  0080     E  	mov _sysWork[3],a
 450  005F              #line 450 "D:\FJ-Holtek_Project\VSCode\BS66FV350_20200424-C280\USER_PROGRAM\USER_PROGRAM.C"
 450  005F  0700     E  	mov a,_tksFun[0]
 450  0060  0080     E  	mov _builtin_holtek_mulhi3_2[0],a
 450  0061  1F00     E  	clr _builtin_holtek_mulhi3_2[1]
 450  0062  0F3C        	mov a,60
 450  0063  0080     E  	mov _builtin_holtek_mulhi3_2[2],a
 450  0064  0F00        	mov a,0
 450  0065  0080     E  	mov _builtin_holtek_mulhi3_2[3],a
 450  0066  2000     E  	call _builtin_holtek_mulhi3
 450  0067  0700     E  	mov a,_builtin_holtek_mulhi3_2[4]  
 450  0068  0080     E  	mov _sysWork[0],a  
 450  0069  0700     E  	mov a,_builtin_holtek_mulhi3_2[5]  
 450  006A  0080     E  	mov _sysWork[1],a
 451  006B              #line 451 "D:\FJ-Holtek_Project\VSCode\BS66FV350_20200424-C280\USER_PROGRAM\USER_PROGRAM.C"
 451  006B  1F00     E  	clr _nixTubeDisType[0]
 452  006C              #line 452 "D:\FJ-Holtek_Project\VSCode\BS66FV350_20200424-C280\USER_PROGRAM\USER_PROGRAM.C"
 452  006C  0700     E  	mov a,_sysWork[4]
 452  006D  0080     E  	mov _sysWork[5],a
 453  006E              #line 453 "D:\FJ-Holtek_Project\VSCode\BS66FV350_20200424-C280\USER_PROGRAM\USER_PROGRAM.C"
 453  006E  0F01        	mov a,1
 453  006F  0080     E  	mov _sysWork[4],a
 454  0070              #line 454 "D:\FJ-Holtek_Project\VSCode\BS66FV350_20200424-C280\USER_PROGRAM\USER_PROGRAM.C"
 454  0070  1F00     R  	clr _tksSetTimeCnt[0]
 454  0071  1F00     R  	clr _tksSetTimeCnt[1]
 454  0072  2800     R  	jmp _L100
 454  0073              _L68:
 458  0073              #line 458 "D:\FJ-Holtek_Project\VSCode\BS66FV350_20200424-C280\USER_PROGRAM\USER_PROGRAM.C"
 458  0073  0700     E  	mov a,_sysWork[4]
 458  0074  0A02        	sub a,2
 458  0075  390A        	snz z
 458  0076  2800     R  	jmp _L70
 459  0077              #line 459 "D:\FJ-Holtek_Project\VSCode\BS66FV350_20200424-C280\USER_PROGRAM\USER_PROGRAM.C"
 459  0077  0700     R  	mov a,_Touch_Scan_2[0]
 459  0078  0A0F        	sub a,15
 459  0079  3D0A        	sz z
 459  007A  2800     R  	jmp _L102
文件：USER_PROGRAM.C 编译器版本 HGASM 0202 页次17

 467  007B              #line 467 "D:\FJ-Holtek_Project\VSCode\BS66FV350_20200424-C280\USER_PROGRAM\USER_PROGRAM.C"
 467  007B  0700     R  	mov a,_Touch_Scan_2[0]
 467  007C  0A0E        	sub a,14
 467  007D  390A        	snz z
 467  007E  2800     R  	jmp _L100
 468  007F              #line 468 "D:\FJ-Holtek_Project\VSCode\BS66FV350_20200424-C280\USER_PROGRAM\USER_PROGRAM.C"
 468  007F  0F02        	mov a,2
 468  0080  0080     E  	mov _buzzType[0],a
 469  0081              #line 469 "D:\FJ-Holtek_Project\VSCode\BS66FV350_20200424-C280\USER_PROGRAM\USER_PROGRAM.C"
 469  0081  3000     E  	set _ledUnion[0].6
 470  0082              #line 470 "D:\FJ-Holtek_Project\VSCode\BS66FV350_20200424-C280\USER_PROGRAM\USER_PROGRAM.C"
 470  0082  3000     E  	set _ledUnion[1].1
 471  0083              #line 471 "D:\FJ-Holtek_Project\VSCode\BS66FV350_20200424-C280\USER_PROGRAM\USER_PROGRAM.C"
 471  0083  0F01        	mov a,1
 471  0084  0080     E  	mov _tksFun[2],a
 472  0085              #line 472 "D:\FJ-Holtek_Project\VSCode\BS66FV350_20200424-C280\USER_PROGRAM\USER_PROGRAM.C"
 472  0085  0700     E  	mov a,_sysWork[4]
 472  0086  0080     E  	mov _sysWork[5],a
 473  0087              #line 473 "D:\FJ-Holtek_Project\VSCode\BS66FV350_20200424-C280\USER_PROGRAM\USER_PROGRAM.C"
 473  0087  0F01        	mov a,1
 473  0088  0080     E  	mov _sysWork[4],a
 473  0089              _L70:
 480  0089              #line 480 "D:\FJ-Holtek_Project\VSCode\BS66FV350_20200424-C280\USER_PROGRAM\USER_PROGRAM.C"
 480  0089  1F00     R  	clr _tksSetTimeCnt[0]
 480  008A  1F00     R  	clr _tksSetTimeCnt[1]
 485  008B              #line 485 "D:\FJ-Holtek_Project\VSCode\BS66FV350_20200424-C280\USER_PROGRAM\USER_PROGRAM.C"
 485  008B  0700     R  	mov a,_tksPresValue[0]
 485  008C  0E3F        	and a,63
 485  008D  0080     R  	mov _Touch_Scan_2[0],a
 485  008E  0700     R  	mov a,_Touch_Scan_2[0]
 485  008F  0A0E        	sub a,14
 485  0090  3D0A        	sz z
 485  0091  2800     R  	jmp _L74
 485  0092  0A01        	sub a,(15)-(14)
 485  0093  3D0A        	sz z
 485  0094  2800     R  	jmp _L75
 485  0095  0700     R  	mov a,_Touch_Scan_2[0]
 485  0096  0A10        	sub a,16
 485  0097  3D0A        	sz z
 485  0098  2800     R  	jmp _L76
 485  0099  0700     R  	mov a,_Touch_Scan_2[0]
 485  009A  0A11        	sub a,17
 485  009B  390A        	snz z
 485  009C  2800     R  	jmp _L73
 515  009D              #line 515 "D:\FJ-Holtek_Project\VSCode\BS66FV350_20200424-C280\USER_PROGRAM\USER_PROGRAM.C"
 515  009D  2000     E  	call _Down_Contorl
 516  009E              #line 516 "D:\FJ-Holtek_Project\VSCode\BS66FV350_20200424-C280\USER_PROGRAM\USER_PROGRAM.C"
 516  009E  2800     R  	jmp _L73
 516  009F              _L75:
 487  009F              #line 487 "D:\FJ-Holtek_Project\VSCode\BS66FV350_20200424-C280\USER_PROGRAM\USER_PROGRAM.C"
 487  009F  3C00     R  	sz _tksPresValue[0].7
 487  00A0  2800     R  	jmp _L98
 490  00A1              #line 490 "D:\FJ-Holtek_Project\VSCode\BS66FV350_20200424-C280\USER_PROGRAM\USER_PROGRAM.C"
 490  00A1  1700     E  	sdza _sysWork[4]
 490  00A2  2800     R  	jmp _L73
 491  00A3              #line 491 "D:\FJ-Holtek_Project\VSCode\BS66FV350_20200424-C280\USER_PROGRAM\USER_PROGRAM.C"
 491  00A3  0F02        	mov a,2
 491  00A4  0080     E  	mov _buzzType[0],a
 492  00A5              #line 492 "D:\FJ-Holtek_Project\VSCode\BS66FV350_20200424-C280\USER_PROGRAM\USER_PROGRAM.C"
 492  00A5  3000     E  	set _ledUnion[0].7
文件：USER_PROGRAM.C 编译器版本 HGASM 0202 页次18

 493  00A6              #line 493 "D:\FJ-Holtek_Project\VSCode\BS66FV350_20200424-C280\USER_PROGRAM\USER_PROGRAM.C"
 493  00A6  3400     E  	clr _ledUnion[0].6
 494  00A7              #line 494 "D:\FJ-Holtek_Project\VSCode\BS66FV350_20200424-C280\USER_PROGRAM\USER_PROGRAM.C"
 494  00A7  3400     E  	clr _ledUnion[1].1
 495  00A8              #line 495 "D:\FJ-Holtek_Project\VSCode\BS66FV350_20200424-C280\USER_PROGRAM\USER_PROGRAM.C"
 495  00A8  3618        	clr [24].4
 495  00A9  3698        	clr [24].5
 496  00AA              #line 496 "D:\FJ-Holtek_Project\VSCode\BS66FV350_20200424-C280\USER_PROGRAM\USER_PROGRAM.C"
 496  00AA  0F05        	mov a,5
 496  00AB  0080     E  	mov _interDistime[0],a
 497  00AC              #line 497 "D:\FJ-Holtek_Project\VSCode\BS66FV350_20200424-C280\USER_PROGRAM\USER_PROGRAM.C"
 497  00AC  1F00     E  	clr _stopDownCount[0]
 497  00AD  1F00     E  	clr _stopDownCount[1]
 498  00AE              #line 498 "D:\FJ-Holtek_Project\VSCode\BS66FV350_20200424-C280\USER_PROGRAM\USER_PROGRAM.C"
 498  00AE  0700     E  	mov a,_sysWork[4]
 498  00AF  0080     E  	mov _sysWork[5],a
 499  00B0              #line 499 "D:\FJ-Holtek_Project\VSCode\BS66FV350_20200424-C280\USER_PROGRAM\USER_PROGRAM.C"
 499  00B0  0F02        	mov a,2
 499  00B1  0080     E  	mov _sysWork[4],a
 499  00B2  2800     R  	jmp _L73
 499  00B3              _L74:
 504  00B3              #line 504 "D:\FJ-Holtek_Project\VSCode\BS66FV350_20200424-C280\USER_PROGRAM\USER_PROGRAM.C"
 504  00B3  3800     R  	snz _tksPresValue[0].7
 504  00B4  2800     R  	jmp _L79
 504  00B5              _L98:
 505  00B5              #line 505 "D:\FJ-Holtek_Project\VSCode\BS66FV350_20200424-C280\USER_PROGRAM\USER_PROGRAM.C"
 505  00B5  1F00     R  	clr _tksPresValue[0]
 505  00B6  2800     R  	jmp _L73
 505  00B7              _L79:
 507  00B7              #line 507 "D:\FJ-Holtek_Project\VSCode\BS66FV350_20200424-C280\USER_PROGRAM\USER_PROGRAM.C"
 507  00B7  0F02        	mov a,2
 507  00B8  0080     E  	mov _buzzType[0],a
 508  00B9              #line 508 "D:\FJ-Holtek_Project\VSCode\BS66FV350_20200424-C280\USER_PROGRAM\USER_PROGRAM.C"
 508  00B9  2000     E  	call _Mode_Contorl
 508  00BA  2800     R  	jmp _L73
 508  00BB              _L76:
 512  00BB              #line 512 "D:\FJ-Holtek_Project\VSCode\BS66FV350_20200424-C280\USER_PROGRAM\USER_PROGRAM.C"
 512  00BB  2000     E  	call _Up_Contorl
 512  00BC              _L73:
 521  00BC              #line 521 "D:\FJ-Holtek_Project\VSCode\BS66FV350_20200424-C280\USER_PROGRAM\USER_PROGRAM.C"
 521  00BC  3800     R  	snz _tksPresValue[0].7
 521  00BD  2800     R  	jmp _L100
 522  00BE              #line 522 "D:\FJ-Holtek_Project\VSCode\BS66FV350_20200424-C280\USER_PROGRAM\USER_PROGRAM.C"
 522  00BE  0F3F        	mov a,63
 522  00BF  0680     R  	andm a,_tksPresValue[0]
 523  00C0              #line 523 "D:\FJ-Holtek_Project\VSCode\BS66FV350_20200424-C280\USER_PROGRAM\USER_PROGRAM.C"
 523  00C0  0F9C        	mov a,156
 523  00C1  0380     R  	addm a,_tksPresTimeCnt[0]
 523  00C2  0FFF        	mov a,255
 523  00C3  1380     R  	adcm a,_tksPresTimeCnt[1]
 523  00C4  2800     R  	jmp _L57
 523  00C5              _L58:
 531  00C5              #line 531 "D:\FJ-Holtek_Project\VSCode\BS66FV350_20200424-C280\USER_PROGRAM\USER_PROGRAM.C"
 531  00C5  0700     E  	mov a,_DATA_BUF[1]
 531  00C6  0080     E  	mov rb,a
 531  00C7  1E00     E  	snz rb
 531  00C8  2800     R  	jmp _L81
 531  00C9  0F08        	mov a,8
 531  00CA  0080     E  	mov rf,a
 531  00CB  1F00     E  	clr ra
文件：USER_PROGRAM.C 编译器版本 HGASM 0202 页次19

 533  00CC              #line 533 "D:\FJ-Holtek_Project\VSCode\BS66FV350_20200424-C280\USER_PROGRAM\USER_PROGRAM.C"
 533  00CC  1F00     E  	clr rc
 533  00CD              _L83:
 533  00CD  0700     E  	mov a,rb
 533  00CE  0080     E  	mov rd,a
 533  00CF  0700     E  	mov a,rc
 533  00D0  0080     E  	mov re,a
 533  00D1  1400     E  	inca ra
 533  00D2  2800     R  	jmp _LI5
 533  00D3              _LI6:
 533  00D3  340A        	clr c
 533  00D4  3C00     E  	sz re.7
 533  00D5  300A        	set c
 533  00D6  1B80     E  	rrc re
 533  00D7  1B80     E  	rrc rd
 533  00D8              _LI5:
 533  00D8  1785        	sdz acc
 533  00D9  2800     R  	jmp _LI6
 533  00DA  3800     E  	snz rd.0
 533  00DB  2800     R  	jmp _L82
 534  00DC              #line 534 "D:\FJ-Holtek_Project\VSCode\BS66FV350_20200424-C280\USER_PROGRAM\USER_PROGRAM.C"
 534  00DC  0700     E  	mov a,ra
 534  00DD  0B09        	add a,9
 534  00DE  0080     R  	mov _tksPresValue[0],a
 534  00DF  2800     R  	jmp _L101
 534  00E0              _L82:
 532  00E0              #line 532 "D:\FJ-Holtek_Project\VSCode\BS66FV350_20200424-C280\USER_PROGRAM\USER_PROGRAM.C"
 532  00E0  1480     E  	inc ra
 532  00E1  1780     E  	sdz rf
 532  00E2  2800     R  	jmp _L83
 532  00E3  2800     R  	jmp _L57
 532  00E4              _L81:
 539  00E4              #line 539 "D:\FJ-Holtek_Project\VSCode\BS66FV350_20200424-C280\USER_PROGRAM\USER_PROGRAM.C"
 539  00E4  0700     E  	mov a,_DATA_BUF[2]
 539  00E5  0080     E  	mov rb,a
 539  00E6  1E00     E  	snz rb
 539  00E7  2800     R  	jmp _L57
 539  00E8  0F08        	mov a,8
 539  00E9  0080     E  	mov rf,a
 539  00EA  1F00     E  	clr ra
 541  00EB              #line 541 "D:\FJ-Holtek_Project\VSCode\BS66FV350_20200424-C280\USER_PROGRAM\USER_PROGRAM.C"
 541  00EB  1F00     E  	clr rc
 541  00EC              _L85:
 541  00EC  0700     E  	mov a,rb
 541  00ED  0080     E  	mov rd,a
 541  00EE  0700     E  	mov a,rc
 541  00EF  0080     E  	mov re,a
 541  00F0  1400     E  	inca ra
 541  00F1  2800     R  	jmp _LI7
 541  00F2              _LI8:
 541  00F2  340A        	clr c
 541  00F3  3C00     E  	sz re.7
 541  00F4  300A        	set c
 541  00F5  1B80     E  	rrc re
 541  00F6  1B80     E  	rrc rd
 541  00F7              _LI7:
 541  00F7  1785        	sdz acc
 541  00F8  2800     R  	jmp _LI8
 541  00F9  3800     E  	snz rd.0
 541  00FA  2800     R  	jmp _L84
文件：USER_PROGRAM.C 编译器版本 HGASM 0202 页次20

 542  00FB              #line 542 "D:\FJ-Holtek_Project\VSCode\BS66FV350_20200424-C280\USER_PROGRAM\USER_PROGRAM.C"
 542  00FB  0700     E  	mov a,ra
 542  00FC  0B11        	add a,17
 542  00FD  0080     R  	mov _tksPresValue[0],a
 542  00FE              _L101:
 543  00FE              #line 543 "D:\FJ-Holtek_Project\VSCode\BS66FV350_20200424-C280\USER_PROGRAM\USER_PROGRAM.C"
 543  00FE  1F00     R  	clr _tksPresTimeCnt[0]
 543  00FF  1F00     R  	clr _tksPresTimeCnt[1]
 544  0100              #line 544 "D:\FJ-Holtek_Project\VSCode\BS66FV350_20200424-C280\USER_PROGRAM\USER_PROGRAM.C"
 544  0100  2800     R  	jmp _L57
 544  0101              _L84:
 540  0101              #line 540 "D:\FJ-Holtek_Project\VSCode\BS66FV350_20200424-C280\USER_PROGRAM\USER_PROGRAM.C"
 540  0101  1480     E  	inc ra
 540  0102  1780     E  	sdz rf
 540  0103  2800     R  	jmp _L85
 540  0104              _L57:
 540  0104  0003        	ret
 540  0105              _Touch_Scan endp
 540  0105              #line 540 "D:\FJ-Holtek_Project\VSCode\BS66FV350_20200424-C280\USER_PROGRAM\USER_PROGRAM.C"
 540  0105              #pragma debug scope 1 1
 540  0105              public _USER_PROGRAM
 540  0105              #pragma debug scope 12 1
 352  0105              #line 352 "D:\FJ-Holtek_Project\VSCode\BS66FV350_20200424-C280\USER_PROGRAM\USER_PROGRAM.C"
 352  0000              _USER_PROGRAM .section 'code'
 352  0000              _USER_PROGRAM proc
 353  0000              #line 353 "D:\FJ-Holtek_Project\VSCode\BS66FV350_20200424-C280\USER_PROGRAM\USER_PROGRAM.C"
 353  0000  2000     E  	call _GET_KEY_BITMAP
 355  0001              #line 355 "D:\FJ-Holtek_Project\VSCode\BS66FV350_20200424-C280\USER_PROGRAM\USER_PROGRAM.C"
 355  0001              ;# 355 "D:\FJ-Holtek_Project\VSCode\BS66FV350_20200424-C280\USER_PROGRAM\USER_PROGRAM.C" 1
 355  0001  0001        	clr wdt
 357  0002              #line 357 "D:\FJ-Holtek_Project\VSCode\BS66FV350_20200424-C280\USER_PROGRAM\USER_PROGRAM.C"
 357  0002  0700     E  	mov a,_sysWork[4]
 357  0003  0A80        	sub a,128
 357  0004  3D0A        	sz z
 357  0005  2800     R  	jmp _L104
 358  0006              #line 358 "D:\FJ-Holtek_Project\VSCode\BS66FV350_20200424-C280\USER_PROGRAM\USER_PROGRAM.C"
 358  0006  2000     R  	call _Touch_Scan
 358  0007              _L104:
 362  0007              #line 362 "D:\FJ-Holtek_Project\VSCode\BS66FV350_20200424-C280\USER_PROGRAM\USER_PROGRAM.C"
 362  0007  1700     E  	sdza _sysWork[4]
 362  0008  2800     R  	jmp _L105
 363  0009              #line 363 "D:\FJ-Holtek_Project\VSCode\BS66FV350_20200424-C280\USER_PROGRAM\USER_PROGRAM.C"
 363  0009  0700     E  	mov a,_sysWork[5]
 363  000A  0A02        	sub a,2
 363  000B  390A        	snz z
 363  000C  2800     R  	jmp _L106
 364  000D              #line 364 "D:\FJ-Holtek_Project\VSCode\BS66FV350_20200424-C280\USER_PROGRAM\USER_PROGRAM.C"
 364  000D  0F04        	mov a,4
 364  000E  0200     R  	sub a,_tksSetTimeCnt[0]
 364  000F  0F00        	mov a,0
 364  0010  1200     R  	sbc a,_tksSetTimeCnt[1]
 364  0011  3C0A        	sz c
 364  0012  2800     R  	jmp _L105
 365  0013              #line 365 "D:\FJ-Holtek_Project\VSCode\BS66FV350_20200424-C280\USER_PROGRAM\USER_PROGRAM.C"
 365  0013  0F0F        	mov a,15
 365  0014  0080     R  	mov _tksPresValue[0],a
 365  0015  2800     R  	jmp _L105
 365  0016              _L106:
 367  0016              #line 367 "D:\FJ-Holtek_Project\VSCode\BS66FV350_20200424-C280\USER_PROGRAM\USER_PROGRAM.C"
 367  0016  1080     E  	sz _sysWork[5]
文件：USER_PROGRAM.C 编译器版本 HGASM 0202 页次21

 367  0017  2800     R  	jmp _L105
 368  0018              #line 368 "D:\FJ-Holtek_Project\VSCode\BS66FV350_20200424-C280\USER_PROGRAM\USER_PROGRAM.C"
 368  0018  0700     R  	mov a,_tksSetTimeCnt[0]
 368  0019  0A58        	sub a,88
 368  001A  0700     R  	mov a,_tksSetTimeCnt[1]
 368  001B  0802        	sbc a,2
 368  001C  3B0A        	snz cz
 368  001D  2800     R  	jmp _L105
 369  001E              #line 369 "D:\FJ-Holtek_Project\VSCode\BS66FV350_20200424-C280\USER_PROGRAM\USER_PROGRAM.C"
 369  001E  0F05        	mov a,5
 369  001F  0080     E  	mov _buzzType[0],a
 370  0020              #line 370 "D:\FJ-Holtek_Project\VSCode\BS66FV350_20200424-C280\USER_PROGRAM\USER_PROGRAM.C"
 370  0020  2000     R  	call _PowerOFF
 370  0021              _L105:
 375  0021              #line 375 "D:\FJ-Holtek_Project\VSCode\BS66FV350_20200424-C280\USER_PROGRAM\USER_PROGRAM.C"
 375  0021  1F00     E  	clr _builtin_holtek_udivmodhi4_2[6]
 375  0022  0700     R  	mov a,_Timestamp[0]  
 375  0023  0080     E  	mov _builtin_holtek_udivmodhi4_2[0],a  
 375  0024  0700     R  	mov a,_Timestamp[1]  
 375  0025  0080     E  	mov _builtin_holtek_udivmodhi4_2[1],a
 375  0026  0F0A        	mov a,10  
 375  0027  0080     E  	mov _builtin_holtek_udivmodhi4_2[2],a  
 375  0028  1F00     E  	clr _builtin_holtek_udivmodhi4_2[3]
 375  0029  2000     E  	call _builtin_holtek_udivmodhi4
 375  002A  0700     E  	mov a,_builtin_holtek_udivmodhi4_2[4]  
 375  002B  0080     E  	mov rb,a  
 375  002C  0700     E  	mov a,_builtin_holtek_udivmodhi4_2[5]  
 375  002D  0080     E  	mov rc,a
 375  002E  0700     E  	mov a,rb
 375  002F  0500     E  	or a,rc
 375  0030  390A        	snz z
 375  0031  2800     R  	jmp _L103
 376  0032              #line 376 "D:\FJ-Holtek_Project\VSCode\BS66FV350_20200424-C280\USER_PROGRAM\USER_PROGRAM.C"
 376  0032  2000     E  	call _NTC_GetAdcValue
 377  0033              #line 377 "D:\FJ-Holtek_Project\VSCode\BS66FV350_20200424-C280\USER_PROGRAM\USER_PROGRAM.C"
 377  0033  2000     E  	call _NTC_HeatControl
 377  0034              _L103:
 377  0034  0003        	ret
 377  0035              _USER_PROGRAM endp
 377  0035              #line 377 "D:\FJ-Holtek_Project\VSCode\BS66FV350_20200424-C280\USER_PROGRAM\USER_PROGRAM.C"
 377  0035              #pragma debug scope 1 1
 377  0000              @HCCINIT	.section 'data'
  74  0000              #line 74 "D:\FJ-Holtek_Project\VSCode\BS66FV350_20200424-C280\USER_PROGRAM\USER_PROGRAM.C"
  74  0000              @HCCINIT_time5sDelayCnt .section 'data'
  74  0000              _time5sDelayCnt label byte
  74  0000              #pragma debug variable 8 1 _time5sDelayCnt "time5sDelayCnt"
  74  0000              	db 0
  74  0000              @ROMDATA_BASE .section inpage 'code'
  74  0000              	db 0
  74  0001              @HCCINIT_time5sDelayCnt .section 'data'
  73  0001              #line 73 "D:\FJ-Holtek_Project\VSCode\BS66FV350_20200424-C280\USER_PROGRAM\USER_PROGRAM.C"
  73  0000              @HCCINIT_time5sCnt .section 'data'
  73  0000              _time5sCnt label byte
  73  0000              #pragma debug variable 8 1 _time5sCnt "time5sCnt"
  73  0000              	db 0
  73  0001              @ROMDATA_BASE .section inpage 'code'
  73  0001              	db 0
  73  0001              @HCCINIT_time5sCnt .section 'data'
  72  0001              #line 72 "D:\FJ-Holtek_Project\VSCode\BS66FV350_20200424-C280\USER_PROGRAM\USER_PROGRAM.C"
  72  0000              @HCCINIT_secTimeCnt .section 'data'
文件：USER_PROGRAM.C 编译器版本 HGASM 0202 页次22

  72  0000              _secTimeCnt label byte
  72  0000              #pragma debug variable 10 1 _secTimeCnt "secTimeCnt"
  72  0000              	dw 1
  72  0001              @ROMDATA_BASE .section inpage 'code'
  72  0001  0001        	dc 1
  72  0002              @HCCINIT_secTimeCnt .section 'data'
  45  0002              #line 45 "D:\FJ-Holtek_Project\VSCode\BS66FV350_20200424-C280\USER_PROGRAM\USER_PROGRAM.C"
  45  0000              @BITDATASEC .section 'data'
  45  0000  00          _secUpdate	dbit 0
  45  0001              #pragma debug variable 2 1 _secUpdate "secUpdate"
  44  0001              #line 44 "D:\FJ-Holtek_Project\VSCode\BS66FV350_20200424-C280\USER_PROGRAM\USER_PROGRAM.C"
  44  0000              @HCCINIT_tksSetTimeCnt .section 'data'
  44  0000              _tksSetTimeCnt label byte
  44  0000              #pragma debug variable 10 1 _tksSetTimeCnt "tksSetTimeCnt"
  44  0000              	db 0
  44  0002              @ROMDATA_BASE .section inpage 'code'
  44  0002              	db 0
  44  0001              @HCCINIT_tksSetTimeCnt .section 'data'
  44  0001              	db 0
  44  0003              @ROMDATA_BASE .section inpage 'code'
  44  0003              	db 0
  44  0002              @HCCINIT_tksSetTimeCnt .section 'data'
  43  0002              #line 43 "D:\FJ-Holtek_Project\VSCode\BS66FV350_20200424-C280\USER_PROGRAM\USER_PROGRAM.C"
  43  0000              @HCCINIT_tksPresTimeCnt .section 'data'
  43  0000              _tksPresTimeCnt label byte
  43  0000              #pragma debug variable 10 1 _tksPresTimeCnt "tksPresTimeCnt"
  43  0000              	db 0
  43  0003              @ROMDATA_BASE .section inpage 'code'
  43  0003              	db 0
  43  0001              @HCCINIT_tksPresTimeCnt .section 'data'
  43  0001              	db 0
  43  0004              @ROMDATA_BASE .section inpage 'code'
  43  0004              	db 0
  43  0002              @HCCINIT_tksPresTimeCnt .section 'data'
  42  0002              #line 42 "D:\FJ-Holtek_Project\VSCode\BS66FV350_20200424-C280\USER_PROGRAM\USER_PROGRAM.C"
  42  0000              @HCCINIT_tksPresValue .section 'data'
  42  0000              _tksPresValue label byte
  42  0000              #pragma debug variable 8 1 _tksPresValue "tksPresValue"
  42  0000              	db 0
  42  0004              @ROMDATA_BASE .section inpage 'code'
  42  0004              	db 0
  42  0001              @HCCINIT_tksPresValue .section 'data'
  42  0001              public _Timestamp
  39  0001              #line 39 "D:\FJ-Holtek_Project\VSCode\BS66FV350_20200424-C280\USER_PROGRAM\USER_PROGRAM.C"
  39  0000              @HCCINIT_Timestamp .section 'data'
  39  0000              _Timestamp label byte
  39  0000              #pragma debug variable 10 1 _Timestamp "Timestamp"
  39  0000              	db 0
  39  0005              @ROMDATA_BASE .section inpage 'code'
  39  0005              	db 0
  39  0001              @HCCINIT_Timestamp .section 'data'
  39  0001              	db 0
  39  0005              @ROMDATA_BASE .section inpage 'code'
  39  0005              	db 0
  39  0002              @HCCINIT_Timestamp .section 'data'
  39  0002              #pragma debug struct_end
  39  0002              #pragma debug struct_end
  39  0002              #pragma debug union_end
  39  0002              #pragma debug union_end
  39  0002              #pragma debug variable 43 1 ___intc0 "__intc0" 1
文件：USER_PROGRAM.C 编译器版本 HGASM 0202 页次23

  39  0002              #pragma debug struct_end
  39  0002              #pragma debug struct_end
  39  0002              #pragma debug union_end
  39  0002              #pragma debug union_end
  39  0002              #pragma debug variable 45 1 ___intc1 "__intc1" 1
  39  0002              #pragma debug struct_end
  39  0002              #pragma debug struct_end
  39  0002              #pragma debug union_end
  39  0002              #pragma debug union_end
  39  0002              #pragma debug variable 47 1 ___intc2 "__intc2" 1
  39  0002              #pragma debug struct_end
  39  0002              #pragma debug struct_end
  39  0002              #pragma debug union_end
  39  0002              #pragma debug union_end
  39  0002              #pragma debug variable 49 1 ___pa "__pa" 1
  39  0002              #pragma debug struct_end
  39  0002              #pragma debug struct_end
  39  0002              #pragma debug union_end
  39  0002              #pragma debug union_end
  39  0002              #pragma debug variable 51 1 ___pac "__pac" 1
  39  0002              #pragma debug struct_end
  39  0002              #pragma debug struct_end
  39  0002              #pragma debug union_end
  39  0002              #pragma debug union_end
  39  0002              #pragma debug variable 53 1 ___pb "__pb" 1
  39  0002              #pragma debug struct_end
  39  0002              #pragma debug struct_end
  39  0002              #pragma debug union_end
  39  0002              #pragma debug union_end
  39  0002              #pragma debug variable 55 1 ___pbc "__pbc" 1
  39  0002              #pragma debug struct_end
  39  0002              #pragma debug struct_end
  39  0002              #pragma debug union_end
  39  0002              #pragma debug union_end
  39  0002              #pragma debug variable 57 1 ___lvdc "__lvdc" 1
  39  0002              #pragma debug struct_end
  39  0002              #pragma debug struct_end
  39  0002              #pragma debug union_end
  39  0002              #pragma debug union_end
  39  0002              #pragma debug variable 59 1 ___pc "__pc" 1
  39  0002              #pragma debug struct_end
  39  0002              #pragma debug struct_end
  39  0002              #pragma debug union_end
  39  0002              #pragma debug union_end
  39  0002              #pragma debug variable 61 1 ___pcc "__pcc" 1
  39  0002              #pragma debug struct_end
  39  0002              #pragma debug struct_end
  39  0002              #pragma debug union_end
  39  0002              #pragma debug union_end
  39  0002              #pragma debug variable 63 1 ___pd "__pd" 1
  39  0002              #pragma debug struct_end
  39  0002              #pragma debug struct_end
  39  0002              #pragma debug union_end
  39  0002              #pragma debug union_end
  39  0002              #pragma debug variable 65 1 ___pdc "__pdc" 1
  39  0002              #pragma debug struct_end
  39  0002              #pragma debug struct_end
  39  0002              #pragma debug union_end
  39  0002              #pragma debug union_end
  39  0002              #pragma debug variable 67 1 ___mfi1 "__mfi1" 1
文件：USER_PROGRAM.C 编译器版本 HGASM 0202 页次24

  39  0002              #pragma debug struct_end
  39  0002              #pragma debug struct_end
  39  0002              #pragma debug union_end
  39  0002              #pragma debug union_end
  39  0002              #pragma debug variable 69 1 ___adcr0 "__adcr0" 1
  39  0002              #pragma debug struct_end
  39  0002              #pragma debug struct_end
  39  0002              #pragma debug union_end
  39  0002              #pragma debug union_end
  39  0002              #pragma debug variable 71 1 ___adcr1 "__adcr1" 1
  39  0002              #pragma debug struct_end
  39  0002              #pragma debug struct_end
  39  0002              #pragma debug union_end
  39  0002              #pragma debug union_end
  39  0002              #pragma debug variable 73 1 ___tb1c "__tb1c" 1
  39  0002              #pragma debug struct_end
  39  0002              #pragma debug struct_end
  39  0002              #pragma debug union_end
  39  0002              #pragma debug union_end
  39  0002              #pragma debug variable 75 1 ___pscr1 "__pscr1" 1
  39  0002              #pragma debug struct_end
  39  0002              #pragma debug struct_end
  39  0002              #pragma debug union_end
  39  0002              #pragma debug union_end
  39  0002              #pragma debug variable 77 1 ___sledc "__sledc" 1
  39  0002              #pragma debug struct_end
  39  0002              #pragma debug struct_end
  39  0002              #pragma debug union_end
  39  0002              #pragma debug union_end
  39  0002              #pragma debug variable 79 1 ___ptmc0 "__ptmc0" 1
  39  0002              #pragma debug struct_end
  39  0002              #pragma debug struct_end
  39  0002              #pragma debug union_end
  39  0002              #pragma debug union_end
  39  0002              #pragma debug variable 81 1 ___ptmc1 "__ptmc1" 1
  39  0002              #pragma debug variable 8 1 ___ptmal "__ptmal" 1
  39  0002              #pragma debug variable 8 1 ___ptmah "__ptmah" 1
  39  0002              #pragma debug struct_end
  39  0002              #pragma debug struct_end
  39  0002              #pragma debug union_end
  39  0002              #pragma debug union_end
  39  0002              #pragma debug variable 83 1 ___ptmrpl "__ptmrpl" 1
  39  0002              #pragma debug struct_end
  39  0002              #pragma debug struct_end
  39  0002              #pragma debug union_end
  39  0002              #pragma debug union_end
  39  0002              #pragma debug variable 85 1 ___ptmrph "__ptmrph" 1
  39  0002              #pragma debug struct_end
  39  0002              #pragma debug struct_end
  39  0002              #pragma debug union_end
  39  0002              #pragma debug union_end
  39  0002              #pragma debug variable 87 1 ___stmc0 "__stmc0" 1
  39  0002              #pragma debug struct_end
  39  0002              #pragma debug struct_end
  39  0002              #pragma debug union_end
  39  0002              #pragma debug union_end
  39  0002              #pragma debug variable 89 1 ___stmc1 "__stmc1" 1
  39  0002              #pragma debug variable 8 1 ___stmal "__stmal" 1
  39  0002              #pragma debug variable 8 1 ___stmah "__stmah" 1
  39  0002              #pragma debug struct_end
文件：USER_PROGRAM.C 编译器版本 HGASM 0202 页次25

  39  0002              #pragma debug struct_end
  39  0002              #pragma debug union_end
  39  0002              #pragma debug union_end
  39  0002              #pragma debug variable 91 1 ___pe "__pe" 1
  39  0002              #pragma debug struct_end
  39  0002              #pragma debug struct_end
  39  0002              #pragma debug union_end
  39  0002              #pragma debug union_end
  39  0002              #pragma debug variable 93 1 ___pec "__pec" 1
  39  0002              #pragma debug struct_end
  39  0002              #pragma debug struct_end
  39  0002              #pragma debug union_end
  39  0002              #pragma debug union_end
  39  0002              #pragma debug variable 95 1 ___pbs0 "__pbs0" 1
  39  0002              
  39  0002              ; output external variables
  39  0002              extern _tksFun:byte
  39  0002              extern _DATA_BUF:byte
  39  0002              extern _buzzType:byte
  39  0002              extern _interDistime:byte
  39  0002              extern _stopDownCount:byte
  39  0002              extern _nixTubeDisType:byte
  39  0002              extern _sysWork:byte
  39  0002              extern _ledUnion:byte
  39  0002              extern r1:byte
  39  0002              extern r2:byte
  39  0002              extern r3:byte
  39  0002              extern r4:byte
  39  0002              extern r5:byte
  39  0002              extern r6:byte
  39  0002              extern _LED_Control_2:byte
  39  0002              extern _LED_Control:near
  39  0002              extern _NixieTube_TimeDisplay_2:byte
  39  0002              extern _NixieTube_TimeDisplay:near
  39  0002              extern _NixieTube_TempDisplay_2:byte
  39  0002              extern _NixieTube_TempDisplay:near
  39  0002              extern _NixieTube_ErrCodeDisplay:near
  39  0002              extern _NixieTube_OFF:near
  39  0002              extern _BUZZ_ActionType:near
  39  0002              extern _builtin_holtek_udivmodhi4_2:byte
  39  0002              extern _builtin_holtek_udivmodhi4:near
  39  0002              extern _builtin_holtek_mulhi3_2:byte
  39  0002              extern _builtin_holtek_mulhi3:near
  39  0002              extern _Down_Contorl:near
  39  0002              extern _Mode_Contorl:near
  39  0002              extern _Up_Contorl:near
  39  0002              extern _GET_KEY_BITMAP:near
  39  0002              extern _NTC_GetAdcValue:near
  39  0002              extern _NTC_HeatControl:near
  39  0002              
  39  0002              ; 
  39  0002              ; Generated by holtek-gcc v3.19, Wed May 06 10:21:18 2020
  39  0002              ; Rebuild 718
  39  0002              ; end of file


        0 Errors, 0